; Listing generated by Microsoft (R) Optimizing Compiler Version 14.00.50727.42 

	TITLE	f:\cygwin\home\Charles\GuSale\gusale\lib\jsoncpp-src-0.5.0\src\lib_json\json_writer.cpp
	.686P
	.XMM
	include listing.inc
	.model	flat


PUBLIC	??_R4Writer@Json@@6B@				; Json::Writer::`RTTI Complete Object Locator'
PUBLIC	??_R4?$num_put@DV?$ostreambuf_iterator@DU?$char_traits@D@std@@@std@@@std@@6B@ ; std::num_put<char,std::ostreambuf_iterator<char,std::char_traits<char> > >::`RTTI Complete Object Locator'
PUBLIC	??_R3?$num_put@DV?$ostreambuf_iterator@DU?$char_traits@D@std@@@std@@@std@@8 ; std::num_put<char,std::ostreambuf_iterator<char,std::char_traits<char> > >::`RTTI Class Hierarchy Descriptor'
PUBLIC	??_R2?$num_put@DV?$ostreambuf_iterator@DU?$char_traits@D@std@@@std@@@std@@8 ; std::num_put<char,std::ostreambuf_iterator<char,std::char_traits<char> > >::`RTTI Base Class Array'
PUBLIC	??_R1A@?0A@EA@?$num_put@DV?$ostreambuf_iterator@DU?$char_traits@D@std@@@std@@@std@@8 ; std::num_put<char,std::ostreambuf_iterator<char,std::char_traits<char> > >::`RTTI Base Class Descriptor at (0,-1,0,64)'
PUBLIC	??_R0?AV?$num_put@DV?$ostreambuf_iterator@DU?$char_traits@D@std@@@std@@@std@@@8 ; std::num_put<char,std::ostreambuf_iterator<char,std::char_traits<char> > > `RTTI Type Descriptor'
PUBLIC	??_R4?$numpunct@D@std@@6B@			; std::numpunct<char>::`RTTI Complete Object Locator'
PUBLIC	??_R3?$numpunct@D@std@@8			; std::numpunct<char>::`RTTI Class Hierarchy Descriptor'
PUBLIC	??_R2?$numpunct@D@std@@8			; std::numpunct<char>::`RTTI Base Class Array'
PUBLIC	??_R1A@?0A@EA@?$numpunct@D@std@@8		; std::numpunct<char>::`RTTI Base Class Descriptor at (0,-1,0,64)'
PUBLIC	??_R0?AV?$numpunct@D@std@@@8			; std::numpunct<char> `RTTI Type Descriptor'
PUBLIC	??_R4?$basic_ostringstream@DU?$char_traits@D@std@@V?$allocator@D@2@@std@@6B@ ; std::basic_ostringstream<char,std::char_traits<char>,std::allocator<char> >::`RTTI Complete Object Locator'
PUBLIC	??_R3?$basic_ostringstream@DU?$char_traits@D@std@@V?$allocator@D@2@@std@@8 ; std::basic_ostringstream<char,std::char_traits<char>,std::allocator<char> >::`RTTI Class Hierarchy Descriptor'
PUBLIC	??_R2?$basic_ostringstream@DU?$char_traits@D@std@@V?$allocator@D@2@@std@@8 ; std::basic_ostringstream<char,std::char_traits<char>,std::allocator<char> >::`RTTI Base Class Array'
PUBLIC	??_R1A@?0A@EA@?$basic_ostringstream@DU?$char_traits@D@std@@V?$allocator@D@2@@std@@8 ; std::basic_ostringstream<char,std::char_traits<char>,std::allocator<char> >::`RTTI Base Class Descriptor at (0,-1,0,64)'
PUBLIC	??_R0?AV?$basic_ostringstream@DU?$char_traits@D@std@@V?$allocator@D@2@@std@@@8 ; std::basic_ostringstream<char,std::char_traits<char>,std::allocator<char> > `RTTI Type Descriptor'
PUBLIC	??_R4?$basic_stringbuf@DU?$char_traits@D@std@@V?$allocator@D@2@@std@@6B@ ; std::basic_stringbuf<char,std::char_traits<char>,std::allocator<char> >::`RTTI Complete Object Locator'
PUBLIC	??_R3?$basic_stringbuf@DU?$char_traits@D@std@@V?$allocator@D@2@@std@@8 ; std::basic_stringbuf<char,std::char_traits<char>,std::allocator<char> >::`RTTI Class Hierarchy Descriptor'
PUBLIC	??_R2?$basic_stringbuf@DU?$char_traits@D@std@@V?$allocator@D@2@@std@@8 ; std::basic_stringbuf<char,std::char_traits<char>,std::allocator<char> >::`RTTI Base Class Array'
PUBLIC	??_R1A@?0A@EA@?$basic_stringbuf@DU?$char_traits@D@std@@V?$allocator@D@2@@std@@8 ; std::basic_stringbuf<char,std::char_traits<char>,std::allocator<char> >::`RTTI Base Class Descriptor at (0,-1,0,64)'
PUBLIC	??_R0?AV?$basic_stringbuf@DU?$char_traits@D@std@@V?$allocator@D@2@@std@@@8 ; std::basic_stringbuf<char,std::char_traits<char>,std::allocator<char> > `RTTI Type Descriptor'
PUBLIC	??_R4?$basic_ostream@DU?$char_traits@D@std@@@std@@6B@ ; std::basic_ostream<char,std::char_traits<char> >::`RTTI Complete Object Locator'
PUBLIC	??_R3?$basic_ostream@DU?$char_traits@D@std@@@std@@8 ; std::basic_ostream<char,std::char_traits<char> >::`RTTI Class Hierarchy Descriptor'
PUBLIC	??_R2?$basic_ostream@DU?$char_traits@D@std@@@std@@8 ; std::basic_ostream<char,std::char_traits<char> >::`RTTI Base Class Array'
PUBLIC	??_R13A@3EA@?$_Iosb@H@std@@8			; std::_Iosb<int>::`RTTI Base Class Descriptor at (4,0,4,64)'
PUBLIC	??_R1A@A@3EA@ios_base@std@@8			; std::ios_base::`RTTI Base Class Descriptor at (0,0,4,64)'
PUBLIC	??_R1A@A@3FA@?$basic_ios@DU?$char_traits@D@std@@@std@@8 ; std::basic_ios<char,std::char_traits<char> >::`RTTI Base Class Descriptor at (0,0,4,80)'
PUBLIC	??_R1A@?0A@EA@?$basic_ostream@DU?$char_traits@D@std@@@std@@8 ; std::basic_ostream<char,std::char_traits<char> >::`RTTI Base Class Descriptor at (0,-1,0,64)'
PUBLIC	??_R0?AV?$basic_ostream@DU?$char_traits@D@std@@@std@@@8 ; std::basic_ostream<char,std::char_traits<char> > `RTTI Type Descriptor'
PUBLIC	??_R4?$basic_streambuf@DU?$char_traits@D@std@@@std@@6B@ ; std::basic_streambuf<char,std::char_traits<char> >::`RTTI Complete Object Locator'
PUBLIC	??_R3?$basic_streambuf@DU?$char_traits@D@std@@@std@@8 ; std::basic_streambuf<char,std::char_traits<char> >::`RTTI Class Hierarchy Descriptor'
PUBLIC	??_R2?$basic_streambuf@DU?$char_traits@D@std@@@std@@8 ; std::basic_streambuf<char,std::char_traits<char> >::`RTTI Base Class Array'
PUBLIC	??_R1A@?0A@EA@?$basic_streambuf@DU?$char_traits@D@std@@@std@@8 ; std::basic_streambuf<char,std::char_traits<char> >::`RTTI Base Class Descriptor at (0,-1,0,64)'
PUBLIC	??_R0?AV?$basic_streambuf@DU?$char_traits@D@std@@@std@@@8 ; std::basic_streambuf<char,std::char_traits<char> > `RTTI Type Descriptor'
PUBLIC	??_R4?$basic_ios@DU?$char_traits@D@std@@@std@@6B@ ; std::basic_ios<char,std::char_traits<char> >::`RTTI Complete Object Locator'
PUBLIC	??_R3?$basic_ios@DU?$char_traits@D@std@@@std@@8	; std::basic_ios<char,std::char_traits<char> >::`RTTI Class Hierarchy Descriptor'
PUBLIC	??_R2?$basic_ios@DU?$char_traits@D@std@@@std@@8	; std::basic_ios<char,std::char_traits<char> >::`RTTI Base Class Array'
PUBLIC	??_R1A@?0A@EA@?$basic_ios@DU?$char_traits@D@std@@@std@@8 ; std::basic_ios<char,std::char_traits<char> >::`RTTI Base Class Descriptor at (0,-1,0,64)'
PUBLIC	??_R0?AV?$basic_ios@DU?$char_traits@D@std@@@std@@@8 ; std::basic_ios<char,std::char_traits<char> > `RTTI Type Descriptor'
PUBLIC	??_R4ios_base@std@@6B@				; std::ios_base::`RTTI Complete Object Locator'
PUBLIC	??_R3ios_base@std@@8				; std::ios_base::`RTTI Class Hierarchy Descriptor'
PUBLIC	??_R2ios_base@std@@8				; std::ios_base::`RTTI Base Class Array'
PUBLIC	??_R13?0A@EA@?$_Iosb@H@std@@8			; std::_Iosb<int>::`RTTI Base Class Descriptor at (4,-1,0,64)'
PUBLIC	??_R3?$_Iosb@H@std@@8				; std::_Iosb<int>::`RTTI Class Hierarchy Descriptor'
PUBLIC	??_R2?$_Iosb@H@std@@8				; std::_Iosb<int>::`RTTI Base Class Array'
PUBLIC	??_R1A@?0A@EA@?$_Iosb@H@std@@8			; std::_Iosb<int>::`RTTI Base Class Descriptor at (0,-1,0,64)'
PUBLIC	??_R0?AV?$_Iosb@H@std@@@8			; std::_Iosb<int> `RTTI Type Descriptor'
PUBLIC	??_R1A@?0A@EA@ios_base@std@@8			; std::ios_base::`RTTI Base Class Descriptor at (0,-1,0,64)'
PUBLIC	??_R0?AVios_base@std@@@8			; std::ios_base `RTTI Type Descriptor'
PUBLIC	?write@FastWriter@Json@@UAE?AV?$basic_string@DU?$char_traits@D@std@@V?$allocator@D@2@@std@@ABVValue@2@@Z ; Json::FastWriter::write
PUBLIC	??_R4FastWriter@Json@@6B@			; Json::FastWriter::`RTTI Complete Object Locator'
PUBLIC	??_R3FastWriter@Json@@8				; Json::FastWriter::`RTTI Class Hierarchy Descriptor'
PUBLIC	??_R2FastWriter@Json@@8				; Json::FastWriter::`RTTI Base Class Array'
PUBLIC	??_R1A@?0A@EA@FastWriter@Json@@8		; Json::FastWriter::`RTTI Base Class Descriptor at (0,-1,0,64)'
PUBLIC	??_R0?AVFastWriter@Json@@@8			; Json::FastWriter `RTTI Type Descriptor'
PUBLIC	?write@StyledWriter@Json@@UAE?AV?$basic_string@DU?$char_traits@D@std@@V?$allocator@D@2@@std@@ABVValue@2@@Z ; Json::StyledWriter::write
PUBLIC	?setf@ios_base@std@@QAEHHH@Z			; std::ios_base::setf
PUBLIC	?hex@std@@YAAAVios_base@1@AAV21@@Z		; std::hex
PUBLIC	?setf@ios_base@std@@QAEHH@Z			; std::ios_base::setf
PUBLIC	?uppercase@std@@YAAAVios_base@1@AAV21@@Z	; std::uppercase
PUBLIC	??6?$basic_ostream@DU?$char_traits@D@std@@@std@@QAEAAV01@P6AAAVios_base@1@AAV21@@Z@Z ; std::basic_ostream<char,std::char_traits<char> >::operator<<
PUBLIC	?_Init@?$num_put@DV?$ostreambuf_iterator@DU?$char_traits@D@std@@@std@@@std@@IAEXABV_Locinfo@2@@Z ; std::num_put<char,std::ostreambuf_iterator<char,std::char_traits<char> > >::_Init
PUBLIC	?_Put@?$num_put@DV?$ostreambuf_iterator@DU?$char_traits@D@std@@@std@@@std@@ABA?AV?$ostreambuf_iterator@DU?$char_traits@D@std@@@2@V32@PBDI@Z ; std::num_put<char,std::ostreambuf_iterator<char,std::char_traits<char> > >::_Put
PUBLIC	?falsename@?$numpunct@D@std@@QBE?AV?$basic_string@DU?$char_traits@D@std@@V?$allocator@D@2@@2@XZ ; std::numpunct<char>::falsename
PUBLIC	?truename@?$numpunct@D@std@@QBE?AV?$basic_string@DU?$char_traits@D@std@@V?$allocator@D@2@@2@XZ ; std::numpunct<char>::truename
PUBLIC	?do_put@?$num_put@DV?$ostreambuf_iterator@DU?$char_traits@D@std@@@std@@@std@@MBE?AV?$ostreambuf_iterator@DU?$char_traits@D@std@@@2@V32@AAVios_base@2@D_N@Z ; std::num_put<char,std::ostreambuf_iterator<char,std::char_traits<char> > >::do_put
PUBLIC	?do_put@?$num_put@DV?$ostreambuf_iterator@DU?$char_traits@D@std@@@std@@@std@@MBE?AV?$ostreambuf_iterator@DU?$char_traits@D@std@@@2@V32@AAVios_base@2@DJ@Z ; std::num_put<char,std::ostreambuf_iterator<char,std::char_traits<char> > >::do_put
PUBLIC	?do_put@?$num_put@DV?$ostreambuf_iterator@DU?$char_traits@D@std@@@std@@@std@@MBE?AV?$ostreambuf_iterator@DU?$char_traits@D@std@@@2@V32@AAVios_base@2@DK@Z ; std::num_put<char,std::ostreambuf_iterator<char,std::char_traits<char> > >::do_put
PUBLIC	?do_put@?$num_put@DV?$ostreambuf_iterator@DU?$char_traits@D@std@@@std@@@std@@MBE?AV?$ostreambuf_iterator@DU?$char_traits@D@std@@@2@V32@AAVios_base@2@D_J@Z ; std::num_put<char,std::ostreambuf_iterator<char,std::char_traits<char> > >::do_put
PUBLIC	?_Ifmt@?$num_put@DV?$ostreambuf_iterator@DU?$char_traits@D@std@@@std@@@std@@ABAPADPADPBDH@Z ; std::num_put<char,std::ostreambuf_iterator<char,std::char_traits<char> > >::_Ifmt
PUBLIC	?do_put@?$num_put@DV?$ostreambuf_iterator@DU?$char_traits@D@std@@@std@@@std@@MBE?AV?$ostreambuf_iterator@DU?$char_traits@D@std@@@2@V32@AAVios_base@2@D_K@Z ; std::num_put<char,std::ostreambuf_iterator<char,std::char_traits<char> > >::do_put
PUBLIC	?do_put@?$num_put@DV?$ostreambuf_iterator@DU?$char_traits@D@std@@@std@@@std@@MBE?AV?$ostreambuf_iterator@DU?$char_traits@D@std@@@2@V32@AAVios_base@2@DN@Z ; std::num_put<char,std::ostreambuf_iterator<char,std::char_traits<char> > >::do_put
PUBLIC	?precision@ios_base@std@@QBEHXZ			; std::ios_base::precision
PUBLIC	?_Ffmt@?$num_put@DV?$ostreambuf_iterator@DU?$char_traits@D@std@@@std@@@std@@ABAPADPADDH@Z ; std::num_put<char,std::ostreambuf_iterator<char,std::char_traits<char> > >::_Ffmt
PUBLIC	?insert@?$basic_string@DU?$char_traits@D@std@@V?$allocator@D@2@@std@@QAEAAV12@IID@Z ; std::basic_string<char,std::char_traits<char>,std::allocator<char> >::insert
PUBLIC	?decimal_point@?$numpunct@D@std@@QBEDXZ		; std::numpunct<char>::decimal_point
PUBLIC	?_Fput@?$num_put@DV?$ostreambuf_iterator@DU?$char_traits@D@std@@@std@@@std@@ABA?AV?$ostreambuf_iterator@DU?$char_traits@D@std@@@2@V32@AAVios_base@2@DPBDIIII@Z ; std::num_put<char,std::ostreambuf_iterator<char,std::char_traits<char> > >::_Fput
PUBLIC	?do_put@?$num_put@DV?$ostreambuf_iterator@DU?$char_traits@D@std@@@std@@@std@@MBE?AV?$ostreambuf_iterator@DU?$char_traits@D@std@@@2@V32@AAVios_base@2@DO@Z ; std::num_put<char,std::ostreambuf_iterator<char,std::char_traits<char> > >::do_put
PUBLIC	?_Putc@?$num_put@DV?$ostreambuf_iterator@DU?$char_traits@D@std@@@std@@@std@@ABA?AV?$ostreambuf_iterator@DU?$char_traits@D@std@@@2@V32@PBDI@Z ; std::num_put<char,std::ostreambuf_iterator<char,std::char_traits<char> > >::_Putc
PUBLIC	?_Putgrouped@?$num_put@DV?$ostreambuf_iterator@DU?$char_traits@D@std@@@std@@@std@@ABA?AV?$ostreambuf_iterator@DU?$char_traits@D@std@@@2@V32@PBDID@Z ; std::num_put<char,std::ostreambuf_iterator<char,std::char_traits<char> > >::_Putgrouped
PUBLIC	??4?$ostreambuf_iterator@DU?$char_traits@D@std@@@std@@QAEAAV01@D@Z ; std::ostreambuf_iterator<char,std::char_traits<char> >::operator=
PUBLIC	??D?$ostreambuf_iterator@DU?$char_traits@D@std@@@std@@QAEAAV01@XZ ; std::ostreambuf_iterator<char,std::char_traits<char> >::operator*
PUBLIC	??E?$ostreambuf_iterator@DU?$char_traits@D@std@@@std@@QAEAAV01@XZ ; std::ostreambuf_iterator<char,std::char_traits<char> >::operator++
PUBLIC	?_Rep@?$num_put@DV?$ostreambuf_iterator@DU?$char_traits@D@std@@@std@@@std@@ABA?AV?$ostreambuf_iterator@DU?$char_traits@D@std@@@2@V32@DI@Z ; std::num_put<char,std::ostreambuf_iterator<char,std::char_traits<char> > >::_Rep
PUBLIC	?_Getcvt@_Locinfo@std@@QBE?AU_Cvtvec@@XZ	; std::_Locinfo::_Getcvt
PUBLIC	?_Getlconv@_Locinfo@std@@QBEPBUlconv@@XZ	; std::_Locinfo::_Getlconv
PUBLIC	?_Getfalse@_Locinfo@std@@QBEPBDXZ		; std::_Locinfo::_Getfalse
PUBLIC	?_Gettrue@_Locinfo@std@@QBEPBDXZ		; std::_Locinfo::_Gettrue
PUBLIC	??$_Maklocstr@D@std@@YAPADPBDPADABU_Cvtvec@@@Z	; std::_Maklocstr<char>
PUBLIC	?_Init@?$numpunct@D@std@@IAEXABV_Locinfo@2@@Z	; std::numpunct<char>::_Init
PUBLIC	?do_decimal_point@?$numpunct@D@std@@MBEDXZ	; std::numpunct<char>::do_decimal_point
PUBLIC	?do_thousands_sep@?$numpunct@D@std@@MBEDXZ	; std::numpunct<char>::do_thousands_sep
PUBLIC	?do_grouping@?$numpunct@D@std@@MBE?AV?$basic_string@DU?$char_traits@D@std@@V?$allocator@D@2@@2@XZ ; std::numpunct<char>::do_grouping
PUBLIC	?do_falsename@?$numpunct@D@std@@MBE?AV?$basic_string@DU?$char_traits@D@std@@V?$allocator@D@2@@2@XZ ; std::numpunct<char>::do_falsename
PUBLIC	?do_truename@?$numpunct@D@std@@MBE?AV?$basic_string@DU?$char_traits@D@std@@V?$allocator@D@2@@2@XZ ; std::numpunct<char>::do_truename
PUBLIC	?_Tidy@?$numpunct@D@std@@AAEXXZ			; std::numpunct<char>::_Tidy
PUBLIC	??1?$numpunct@D@std@@MAE@XZ			; std::numpunct<char>::~numpunct<char>
PUBLIC	??_G?$numpunct@D@std@@MAEPAXI@Z			; std::numpunct<char>::`scalar deleting destructor'
PUBLIC	??$_Maklocchr@D@std@@YADDPADABU_Cvtvec@@@Z	; std::_Maklocchr<char>
PUBLIC	??0?$numpunct@D@std@@QAE@I@Z			; std::numpunct<char>::numpunct<char>
PUBLIC	?_Getcat@?$numpunct@D@std@@SAIPAPBVfacet@locale@2@@Z ; std::numpunct<char>::_Getcat
PUBLIC	??$use_facet@V?$numpunct@D@std@@@std@@YAABV?$numpunct@D@0@ABVlocale@0@@Z ; std::use_facet<std::numpunct<char> >
PUBLIC	?thousands_sep@?$numpunct@D@std@@QBEDXZ		; std::numpunct<char>::thousands_sep
PUBLIC	?grouping@?$numpunct@D@std@@QBE?AV?$basic_string@DU?$char_traits@D@std@@V?$allocator@D@2@@2@XZ ; std::numpunct<char>::grouping
PUBLIC	?_Iput@?$num_put@DV?$ostreambuf_iterator@DU?$char_traits@D@std@@@std@@@std@@ABA?AV?$ostreambuf_iterator@DU?$char_traits@D@std@@@2@V32@AAVios_base@2@DPADI@Z ; std::num_put<char,std::ostreambuf_iterator<char,std::char_traits<char> > >::_Iput
PUBLIC	?do_put@?$num_put@DV?$ostreambuf_iterator@DU?$char_traits@D@std@@@std@@@std@@MBE?AV?$ostreambuf_iterator@DU?$char_traits@D@std@@@2@V32@AAVios_base@2@DPBX@Z ; std::num_put<char,std::ostreambuf_iterator<char,std::char_traits<char> > >::do_put
PUBLIC	??1?$num_put@DV?$ostreambuf_iterator@DU?$char_traits@D@std@@@std@@@std@@MAE@XZ ; std::num_put<char,std::ostreambuf_iterator<char,std::char_traits<char> > >::~num_put<char,std::ostreambuf_iterator<char,std::char_traits<char> > >
PUBLIC	??_G?$num_put@DV?$ostreambuf_iterator@DU?$char_traits@D@std@@@std@@@std@@MAEPAXI@Z ; std::num_put<char,std::ostreambuf_iterator<char,std::char_traits<char> > >::`scalar deleting destructor'
PUBLIC	??0?$num_put@DV?$ostreambuf_iterator@DU?$char_traits@D@std@@@std@@@std@@QAE@I@Z ; std::num_put<char,std::ostreambuf_iterator<char,std::char_traits<char> > >::num_put<char,std::ostreambuf_iterator<char,std::char_traits<char> > >
PUBLIC	?_Getcat@?$num_put@DV?$ostreambuf_iterator@DU?$char_traits@D@std@@@std@@@std@@SAIPAPBVfacet@locale@2@@Z ; std::num_put<char,std::ostreambuf_iterator<char,std::char_traits<char> > >::_Getcat
PUBLIC	??$use_facet@V?$num_put@DV?$ostreambuf_iterator@DU?$char_traits@D@std@@@std@@@std@@@std@@YAABV?$num_put@DV?$ostreambuf_iterator@DU?$char_traits@D@std@@@std@@@0@ABVlocale@0@@Z ; std::use_facet<std::num_put<char,std::ostreambuf_iterator<char,std::char_traits<char> > > >
PUBLIC	?put@?$num_put@DV?$ostreambuf_iterator@DU?$char_traits@D@std@@@std@@@std@@QBE?AV?$ostreambuf_iterator@DU?$char_traits@D@std@@@2@V32@AAVios_base@2@DJ@Z ; std::num_put<char,std::ostreambuf_iterator<char,std::char_traits<char> > >::put
PUBLIC	??0?$_Iterator_with_base@Uoutput_iterator_tag@std@@XXXXU_Iterator_base@2@@std@@QAE@XZ ; std::_Iterator_with_base<std::output_iterator_tag,void,void,void,void,std::_Iterator_base>::_Iterator_with_base<std::output_iterator_tag,void,void,void,void,std::_Iterator_base>
PUBLIC	??0?$_Outit_with_base@U_Iterator_base@std@@@std@@QAE@XZ ; std::_Outit_with_base<std::_Iterator_base>::_Outit_with_base<std::_Iterator_base>
PUBLIC	??0?$ostreambuf_iterator@DU?$char_traits@D@std@@@std@@QAE@PAV?$basic_streambuf@DU?$char_traits@D@std@@@1@@Z ; std::ostreambuf_iterator<char,std::char_traits<char> >::ostreambuf_iterator<char,std::char_traits<char> >
PUBLIC	?failed@?$ostreambuf_iterator@DU?$char_traits@D@std@@@std@@QBE_NXZ ; std::ostreambuf_iterator<char,std::char_traits<char> >::failed
PUBLIC	??6?$basic_ostream@DU?$char_traits@D@std@@@std@@QAEAAV01@H@Z ; std::basic_ostream<char,std::char_traits<char> >::operator<<
PUBLIC	?clear@ios_base@std@@QAEXH@Z			; std::ios_base::clear
PUBLIC	?_Init@ios_base@std@@IAEXXZ			; std::ios_base::_Init
PUBLIC	?widen@?$ctype@D@std@@QBEDD@Z			; std::ctype<char>::widen
PUBLIC	?widen@?$basic_ios@DU?$char_traits@D@std@@@std@@QBEDD@Z ; std::basic_ios<char,std::char_traits<char> >::widen
PUBLIC	?init@?$basic_ios@DU?$char_traits@D@std@@@std@@IAEXPAV?$basic_streambuf@DU?$char_traits@D@std@@@2@_N@Z ; std::basic_ios<char,std::char_traits<char> >::init
PUBLIC	??0ios_base@std@@IAE@XZ				; std::ios_base::ios_base
PUBLIC	??0?$basic_ios@DU?$char_traits@D@std@@@std@@IAE@XZ ; std::basic_ios<char,std::char_traits<char> >::basic_ios<char,std::char_traits<char> >
PUBLIC	??0?$basic_ostream@DU?$char_traits@D@std@@@std@@QAE@PAV?$basic_streambuf@DU?$char_traits@D@std@@@1@_N@Z ; std::basic_ostream<char,std::char_traits<char> >::basic_ostream<char,std::char_traits<char> >
PUBLIC	??0locale@std@@QAE@XZ				; std::locale::locale
PUBLIC	?_Init@?$basic_streambuf@DU?$char_traits@D@std@@@std@@IAEXXZ ; std::basic_streambuf<char,std::char_traits<char> >::_Init
PUBLIC	??0?$basic_streambuf@DU?$char_traits@D@std@@@std@@IAE@XZ ; std::basic_streambuf<char,std::char_traits<char> >::basic_streambuf<char,std::char_traits<char> >
PUBLIC	?_Init@?$basic_stringbuf@DU?$char_traits@D@std@@V?$allocator@D@2@@std@@IAEXPBDIH@Z ; std::basic_stringbuf<char,std::char_traits<char>,std::allocator<char> >::_Init
PUBLIC	?_Getstate@?$basic_stringbuf@DU?$char_traits@D@std@@V?$allocator@D@2@@std@@AAEHH@Z ; std::basic_stringbuf<char,std::char_traits<char>,std::allocator<char> >::_Getstate
PUBLIC	??0?$basic_stringbuf@DU?$char_traits@D@std@@V?$allocator@D@2@@std@@QAE@H@Z ; std::basic_stringbuf<char,std::char_traits<char>,std::allocator<char> >::basic_stringbuf<char,std::char_traits<char>,std::allocator<char> >
PUBLIC	??0?$basic_ostringstream@DU?$char_traits@D@std@@V?$allocator@D@2@@std@@QAE@H@Z ; std::basic_ostringstream<char,std::char_traits<char>,std::allocator<char> >::basic_ostringstream<char,std::char_traits<char>,std::allocator<char> >
PUBLIC	??0?$basic_string@DU?$char_traits@D@std@@V?$allocator@D@2@@std@@QAE@PBDI@Z ; std::basic_string<char,std::char_traits<char>,std::allocator<char> >::basic_string<char,std::char_traits<char>,std::allocator<char> >
PUBLIC	?str@?$basic_stringbuf@DU?$char_traits@D@std@@V?$allocator@D@2@@std@@QBE?AV?$basic_string@DU?$char_traits@D@std@@V?$allocator@D@2@@2@XZ ; std::basic_stringbuf<char,std::char_traits<char>,std::allocator<char> >::str
PUBLIC	?str@?$basic_ostringstream@DU?$char_traits@D@std@@V?$allocator@D@2@@std@@QBE?AV?$basic_string@DU?$char_traits@D@std@@V?$allocator@D@2@@2@XZ ; std::basic_ostringstream<char,std::char_traits<char>,std::allocator<char> >::str
PUBLIC	??_Gios_base@std@@UAEPAXI@Z			; std::ios_base::`scalar deleting destructor'
PUBLIC	??1ios_base@std@@UAE@XZ				; std::ios_base::~ios_base
PUBLIC	??_G?$basic_ios@DU?$char_traits@D@std@@@std@@UAEPAXI@Z ; std::basic_ios<char,std::char_traits<char> >::`scalar deleting destructor'
PUBLIC	??1?$basic_ios@DU?$char_traits@D@std@@@std@@UAE@XZ ; std::basic_ios<char,std::char_traits<char> >::~basic_ios<char,std::char_traits<char> >
PUBLIC	??_D?$basic_ostream@DU?$char_traits@D@std@@@std@@QAEXXZ ; std::basic_ostream<char,std::char_traits<char> >::`vbase destructor'
PUBLIC	??_G?$basic_ostream@DU?$char_traits@D@std@@@std@@UAEPAXI@Z ; std::basic_ostream<char,std::char_traits<char> >::`scalar deleting destructor'
PUBLIC	??1?$basic_ostream@DU?$char_traits@D@std@@@std@@UAE@XZ ; std::basic_ostream<char,std::char_traits<char> >::~basic_ostream<char,std::char_traits<char> >
PUBLIC	??_Glocale@std@@QAEPAXI@Z			; std::locale::`scalar deleting destructor'
PUBLIC	?overflow@?$basic_streambuf@DU?$char_traits@D@std@@@std@@MAEHH@Z ; std::basic_streambuf<char,std::char_traits<char> >::overflow
PUBLIC	?pbackfail@?$basic_streambuf@DU?$char_traits@D@std@@@std@@MAEHH@Z ; std::basic_streambuf<char,std::char_traits<char> >::pbackfail
PUBLIC	?underflow@?$basic_streambuf@DU?$char_traits@D@std@@@std@@MAEHXZ ; std::basic_streambuf<char,std::char_traits<char> >::underflow
PUBLIC	?seekoff@?$basic_streambuf@DU?$char_traits@D@std@@@std@@MAE?AV?$fpos@H@2@JHH@Z ; std::basic_streambuf<char,std::char_traits<char> >::seekoff
PUBLIC	?seekpos@?$basic_streambuf@DU?$char_traits@D@std@@@std@@MAE?AV?$fpos@H@2@V32@H@Z ; std::basic_streambuf<char,std::char_traits<char> >::seekpos
PUBLIC	??_G?$basic_streambuf@DU?$char_traits@D@std@@@std@@UAEPAXI@Z ; std::basic_streambuf<char,std::char_traits<char> >::`scalar deleting destructor'
PUBLIC	??1?$basic_streambuf@DU?$char_traits@D@std@@@std@@UAE@XZ ; std::basic_streambuf<char,std::char_traits<char> >::~basic_streambuf<char,std::char_traits<char> >
PUBLIC	?_Tidy@?$basic_stringbuf@DU?$char_traits@D@std@@V?$allocator@D@2@@std@@IAEXXZ ; std::basic_stringbuf<char,std::char_traits<char>,std::allocator<char> >::_Tidy
PUBLIC	?showmanyc@?$basic_streambuf@DU?$char_traits@D@std@@@std@@MAEHXZ ; std::basic_streambuf<char,std::char_traits<char> >::showmanyc
PUBLIC	?uflow@?$basic_streambuf@DU?$char_traits@D@std@@@std@@MAEHXZ ; std::basic_streambuf<char,std::char_traits<char> >::uflow
PUBLIC	?xsgetn@?$basic_streambuf@DU?$char_traits@D@std@@@std@@MAEHPADH@Z ; std::basic_streambuf<char,std::char_traits<char> >::xsgetn
PUBLIC	?_Xsgetn_s@?$basic_streambuf@DU?$char_traits@D@std@@@std@@MAEHPADIH@Z ; std::basic_streambuf<char,std::char_traits<char> >::_Xsgetn_s
PUBLIC	?xsputn@?$basic_streambuf@DU?$char_traits@D@std@@@std@@MAEHPBDH@Z ; std::basic_streambuf<char,std::char_traits<char> >::xsputn
PUBLIC	?setbuf@?$basic_streambuf@DU?$char_traits@D@std@@@std@@MAEPAV12@PADH@Z ; std::basic_streambuf<char,std::char_traits<char> >::setbuf
PUBLIC	?sync@?$basic_streambuf@DU?$char_traits@D@std@@@std@@MAEHXZ ; std::basic_streambuf<char,std::char_traits<char> >::sync
PUBLIC	?imbue@?$basic_streambuf@DU?$char_traits@D@std@@@std@@MAEXABVlocale@2@@Z ; std::basic_streambuf<char,std::char_traits<char> >::imbue
PUBLIC	?setp@?$basic_streambuf@DU?$char_traits@D@std@@@std@@IAEXPAD0@Z ; std::basic_streambuf<char,std::char_traits<char> >::setp
PUBLIC	?overflow@?$basic_stringbuf@DU?$char_traits@D@std@@V?$allocator@D@2@@std@@MAEHH@Z ; std::basic_stringbuf<char,std::char_traits<char>,std::allocator<char> >::overflow
PUBLIC	?eq@?$char_traits@D@std@@SA_NABD0@Z		; std::char_traits<char>::eq
PUBLIC	?not_eof@?$char_traits@D@std@@SAHABH@Z		; std::char_traits<char>::not_eof
PUBLIC	?pbackfail@?$basic_stringbuf@DU?$char_traits@D@std@@V?$allocator@D@2@@std@@MAEHH@Z ; std::basic_stringbuf<char,std::char_traits<char>,std::allocator<char> >::pbackfail
PUBLIC	?egptr@?$basic_streambuf@DU?$char_traits@D@std@@@std@@IBEPADXZ ; std::basic_streambuf<char,std::char_traits<char> >::egptr
PUBLIC	?setg@?$basic_streambuf@DU?$char_traits@D@std@@@std@@IAEXPAD00@Z ; std::basic_streambuf<char,std::char_traits<char> >::setg
PUBLIC	?underflow@?$basic_stringbuf@DU?$char_traits@D@std@@V?$allocator@D@2@@std@@MAEHXZ ; std::basic_stringbuf<char,std::char_traits<char>,std::allocator<char> >::underflow
PUBLIC	?seekoff@?$basic_stringbuf@DU?$char_traits@D@std@@V?$allocator@D@2@@std@@MAE?AV?$fpos@H@2@JHH@Z ; std::basic_stringbuf<char,std::char_traits<char>,std::allocator<char> >::seekoff
PUBLIC	?eback@?$basic_streambuf@DU?$char_traits@D@std@@@std@@IBEPADXZ ; std::basic_streambuf<char,std::char_traits<char> >::eback
PUBLIC	?pbase@?$basic_streambuf@DU?$char_traits@D@std@@@std@@IBEPADXZ ; std::basic_streambuf<char,std::char_traits<char> >::pbase
PUBLIC	?pptr@?$basic_streambuf@DU?$char_traits@D@std@@@std@@IBEPADXZ ; std::basic_streambuf<char,std::char_traits<char> >::pptr
PUBLIC	?gbump@?$basic_streambuf@DU?$char_traits@D@std@@@std@@IAEXH@Z ; std::basic_streambuf<char,std::char_traits<char> >::gbump
PUBLIC	?epptr@?$basic_streambuf@DU?$char_traits@D@std@@@std@@IBEPADXZ ; std::basic_streambuf<char,std::char_traits<char> >::epptr
PUBLIC	?pbump@?$basic_streambuf@DU?$char_traits@D@std@@@std@@IAEXH@Z ; std::basic_streambuf<char,std::char_traits<char> >::pbump
PUBLIC	?setp@?$basic_streambuf@DU?$char_traits@D@std@@@std@@IAEXPAD00@Z ; std::basic_streambuf<char,std::char_traits<char> >::setp
PUBLIC	??0?$fpos@H@std@@QAE@J@Z			; std::fpos<int>::fpos<int>
PUBLIC	??B?$fpos@H@std@@QBEJXZ				; std::fpos<int>::operator long
PUBLIC	?seekpos@?$basic_stringbuf@DU?$char_traits@D@std@@V?$allocator@D@2@@std@@MAE?AV?$fpos@H@2@V32@H@Z ; std::basic_stringbuf<char,std::char_traits<char>,std::allocator<char> >::seekpos
PUBLIC	??_G?$basic_stringbuf@DU?$char_traits@D@std@@V?$allocator@D@2@@std@@UAEPAXI@Z ; std::basic_stringbuf<char,std::char_traits<char>,std::allocator<char> >::`scalar deleting destructor'
PUBLIC	??1?$basic_stringbuf@DU?$char_traits@D@std@@V?$allocator@D@2@@std@@UAE@XZ ; std::basic_stringbuf<char,std::char_traits<char>,std::allocator<char> >::~basic_stringbuf<char,std::char_traits<char>,std::allocator<char> >
PUBLIC	??_G?$basic_ostringstream@DU?$char_traits@D@std@@V?$allocator@D@2@@std@@UAEPAXI@Z ; std::basic_ostringstream<char,std::char_traits<char>,std::allocator<char> >::`scalar deleting destructor'
PUBLIC	??1?$basic_ostringstream@DU?$char_traits@D@std@@V?$allocator@D@2@@std@@UAE@XZ ; std::basic_ostringstream<char,std::char_traits<char>,std::allocator<char> >::~basic_ostringstream<char,std::char_traits<char>,std::allocator<char> >
PUBLIC	??_D?$basic_ostringstream@DU?$char_traits@D@std@@V?$allocator@D@2@@std@@QAEXXZ ; std::basic_ostringstream<char,std::char_traits<char>,std::allocator<char> >::`vbase destructor'
PUBLIC	??0?$_Fillobj@D@std@@QAE@D@Z			; std::_Fillobj<char>::_Fillobj<char>
PUBLIC	??$setfill@D@std@@YA?AU?$_Fillobj@D@0@D@Z	; std::setfill<char>
PUBLIC	?fill@?$basic_ios@DU?$char_traits@D@std@@@std@@QAEDD@Z ; std::basic_ios<char,std::char_traits<char> >::fill
PUBLIC	??$?6DU?$char_traits@D@std@@@std@@YAAAV?$basic_ostream@DU?$char_traits@D@std@@@0@AAV10@ABU?$_Fillobj@D@0@@Z ; std::operator<<<char,std::char_traits<char> >
PUBLIC	??$?6DU?$char_traits@D@std@@H@std@@YAAAV?$basic_ostream@DU?$char_traits@D@std@@@0@AAV10@ABU?$_Smanip@H@0@@Z ; std::operator<<<char,std::char_traits<char>,int>
PUBLIC	??1FastWriter@Json@@UAE@XZ			; Json::FastWriter::~FastWriter
PUBLIC	??_GFastWriter@Json@@UAEPAXI@Z			; Json::FastWriter::`scalar deleting destructor'
PUBLIC	??_GWriter@Json@@UAEPAXI@Z			; Json::Writer::`scalar deleting destructor'
PUBLIC	??0Writer@Json@@QAE@XZ				; Json::Writer::Writer
PUBLIC	?assign@?$basic_string@DU?$char_traits@D@std@@V?$allocator@D@2@@std@@QAEAAV12@ID@Z ; std::basic_string<char,std::char_traits<char>,std::allocator<char> >::assign
PUBLIC	??0?$basic_string@DU?$char_traits@D@std@@V?$allocator@D@2@@std@@QAE@ID@Z ; std::basic_string<char,std::char_traits<char>,std::allocator<char> >::basic_string<char,std::char_traits<char>,std::allocator<char> >
PUBLIC	??D?$_Vector_const_iterator@V?$basic_string@DU?$char_traits@D@std@@V?$allocator@D@2@@std@@V?$allocator@V?$basic_string@DU?$char_traits@D@std@@V?$allocator@D@2@@std@@@2@@std@@QBEABV?$basic_string@DU?$char_traits@D@std@@V?$allocator@D@2@@1@XZ ; std::_Vector_const_iterator<std::basic_string<char,std::char_traits<char>,std::allocator<char> >,std::allocator<std::basic_string<char,std::char_traits<char>,std::allocator<char> > > >::operator*
PUBLIC	??D?$_Vector_iterator@V?$basic_string@DU?$char_traits@D@std@@V?$allocator@D@2@@std@@V?$allocator@V?$basic_string@DU?$char_traits@D@std@@V?$allocator@D@2@@std@@@2@@std@@QBEAAV?$basic_string@DU?$char_traits@D@std@@V?$allocator@D@2@@1@XZ ; std::_Vector_iterator<std::basic_string<char,std::char_traits<char>,std::allocator<char> >,std::allocator<std::basic_string<char,std::char_traits<char>,std::allocator<char> > > >::operator*
PUBLIC	??E?$_Vector_const_iterator@V?$basic_string@DU?$char_traits@D@std@@V?$allocator@D@2@@std@@V?$allocator@V?$basic_string@DU?$char_traits@D@std@@V?$allocator@D@2@@std@@@2@@std@@QAEAAV01@XZ ; std::_Vector_const_iterator<std::basic_string<char,std::char_traits<char>,std::allocator<char> >,std::allocator<std::basic_string<char,std::char_traits<char>,std::allocator<char> > > >::operator++
PUBLIC	??E?$_Vector_iterator@V?$basic_string@DU?$char_traits@D@std@@V?$allocator@D@2@@std@@V?$allocator@V?$basic_string@DU?$char_traits@D@std@@V?$allocator@D@2@@std@@@2@@std@@QAEAAV01@XZ ; std::_Vector_iterator<std::basic_string<char,std::char_traits<char>,std::allocator<char> >,std::allocator<std::basic_string<char,std::char_traits<char>,std::allocator<char> > > >::operator++
PUBLIC	?empty@?$vector@V?$basic_string@DU?$char_traits@D@std@@V?$allocator@D@2@@std@@V?$allocator@V?$basic_string@DU?$char_traits@D@std@@V?$allocator@D@2@@std@@@2@@std@@QBE_NXZ ; std::vector<std::basic_string<char,std::char_traits<char>,std::allocator<char> >,std::allocator<std::basic_string<char,std::char_traits<char>,std::allocator<char> > > >::empty
PUBLIC	??A?$vector@V?$basic_string@DU?$char_traits@D@std@@V?$allocator@D@2@@std@@V?$allocator@V?$basic_string@DU?$char_traits@D@std@@V?$allocator@D@2@@std@@@2@@std@@QAEAAV?$basic_string@DU?$char_traits@D@std@@V?$allocator@D@2@@1@I@Z ; std::vector<std::basic_string<char,std::char_traits<char>,std::allocator<char> >,std::allocator<std::basic_string<char,std::char_traits<char>,std::allocator<char> > > >::operator[]
PUBLIC	??8?$_Vector_const_iterator@V?$basic_string@DU?$char_traits@D@std@@V?$allocator@D@2@@std@@V?$allocator@V?$basic_string@DU?$char_traits@D@std@@V?$allocator@D@2@@std@@@2@@std@@QBE_NABV01@@Z ; std::_Vector_const_iterator<std::basic_string<char,std::char_traits<char>,std::allocator<char> >,std::allocator<std::basic_string<char,std::char_traits<char>,std::allocator<char> > > >::operator==
PUBLIC	??9?$_Vector_const_iterator@V?$basic_string@DU?$char_traits@D@std@@V?$allocator@D@2@@std@@V?$allocator@V?$basic_string@DU?$char_traits@D@std@@V?$allocator@D@2@@std@@@2@@std@@QBE_NABV01@@Z ; std::_Vector_const_iterator<std::basic_string<char,std::char_traits<char>,std::allocator<char> >,std::allocator<std::basic_string<char,std::char_traits<char>,std::allocator<char> > > >::operator!=
PUBLIC	??$_Copy_opt@PAV?$basic_string@DU?$char_traits@D@std@@V?$allocator@D@2@@std@@PAV12@Uforward_iterator_tag@2@@std@@YAPAV?$basic_string@DU?$char_traits@D@std@@V?$allocator@D@2@@0@PAV10@00Uforward_iterator_tag@0@U_Nonscalar_ptr_iterator_tag@0@U_Range_checked_iterator_tag@0@@Z ; std::_Copy_opt<std::basic_string<char,std::char_traits<char>,std::allocator<char> > *,std::basic_string<char,std::char_traits<char>,std::allocator<char> > *,std::forward_iterator_tag>
PUBLIC	??$_Copy_opt@PAV?$basic_string@DU?$char_traits@D@std@@V?$allocator@D@2@@std@@PAV12@@std@@YAPAV?$basic_string@DU?$char_traits@D@std@@V?$allocator@D@2@@0@PAV10@00Urandom_access_iterator_tag@0@U_Nonscalar_ptr_iterator_tag@0@U_Range_checked_iterator_tag@0@@Z ; std::_Copy_opt<std::basic_string<char,std::char_traits<char>,std::allocator<char> > *,std::basic_string<char,std::char_traits<char>,std::allocator<char> > *>
PUBLIC	??$unchecked_copy@PAV?$basic_string@DU?$char_traits@D@std@@V?$allocator@D@2@@std@@PAV12@@stdext@@YAPAV?$basic_string@DU?$char_traits@D@std@@V?$allocator@D@2@@std@@PAV12@00@Z ; stdext::unchecked_copy<std::basic_string<char,std::char_traits<char>,std::allocator<char> > *,std::basic_string<char,std::char_traits<char>,std::allocator<char> > *>
PUBLIC	?erase@?$vector@V?$basic_string@DU?$char_traits@D@std@@V?$allocator@D@2@@std@@V?$allocator@V?$basic_string@DU?$char_traits@D@std@@V?$allocator@D@2@@std@@@2@@std@@QAE?AV?$_Vector_iterator@V?$basic_string@DU?$char_traits@D@std@@V?$allocator@D@2@@std@@V?$allocator@V?$basic_string@DU?$char_traits@D@std@@V?$allocator@D@2@@std@@@2@@2@V32@0@Z ; std::vector<std::basic_string<char,std::char_traits<char>,std::allocator<char> >,std::allocator<std::basic_string<char,std::char_traits<char>,std::allocator<char> > > >::erase
PUBLIC	?clear@?$vector@V?$basic_string@DU?$char_traits@D@std@@V?$allocator@D@2@@std@@V?$allocator@V?$basic_string@DU?$char_traits@D@std@@V?$allocator@D@2@@std@@@2@@std@@QAEXXZ ; std::vector<std::basic_string<char,std::char_traits<char>,std::allocator<char> >,std::allocator<std::basic_string<char,std::char_traits<char>,std::allocator<char> > > >::clear
PUBLIC	??$?6U?$char_traits@D@std@@@std@@YAAAV?$basic_ostream@DU?$char_traits@D@std@@@0@AAV10@D@Z ; std::operator<<<std::char_traits<char> >
PUBLIC	?sputn@?$basic_streambuf@DU?$char_traits@D@std@@@std@@QAEHPBDH@Z ; std::basic_streambuf<char,std::char_traits<char> >::sputn
PUBLIC	??$?6U?$char_traits@D@std@@@std@@YAAAV?$basic_ostream@DU?$char_traits@D@std@@@0@AAV10@PBD@Z ; std::operator<<<std::char_traits<char> >
PUBLIC	??A?$basic_string@DU?$char_traits@D@std@@V?$allocator@D@2@@std@@QBEABDI@Z ; std::basic_string<char,std::char_traits<char>,std::allocator<char> >::operator[]
PUBLIC	?width@ios_base@std@@QBEHXZ			; std::ios_base::width
PUBLIC	?width@ios_base@std@@QAEHH@Z			; std::ios_base::width
PUBLIC	?fill@?$basic_ios@DU?$char_traits@D@std@@@std@@QBEDXZ ; std::basic_ios<char,std::char_traits<char> >::fill
PUBLIC	?_Pninc@?$basic_streambuf@DU?$char_traits@D@std@@@std@@IAEPADXZ ; std::basic_streambuf<char,std::char_traits<char> >::_Pninc
PUBLIC	?_Pnavail@?$basic_streambuf@DU?$char_traits@D@std@@@std@@IBEHXZ ; std::basic_streambuf<char,std::char_traits<char> >::_Pnavail
PUBLIC	?sputc@?$basic_streambuf@DU?$char_traits@D@std@@@std@@QAEHD@Z ; std::basic_streambuf<char,std::char_traits<char> >::sputc
PUBLIC	??0_Sentry_base@?$basic_ostream@DU?$char_traits@D@std@@@std@@QAE@AAV12@@Z ; std::basic_ostream<char,std::char_traits<char> >::_Sentry_base::_Sentry_base
PUBLIC	??0sentry@?$basic_ostream@DU?$char_traits@D@std@@@std@@QAE@AAV12@@Z ; std::basic_ostream<char,std::char_traits<char> >::sentry::sentry
PUBLIC	?_Osfx@?$basic_ostream@DU?$char_traits@D@std@@@std@@QAEXXZ ; std::basic_ostream<char,std::char_traits<char> >::_Osfx
PUBLIC	??1_Sentry_base@?$basic_ostream@DU?$char_traits@D@std@@@std@@QAE@XZ ; std::basic_ostream<char,std::char_traits<char> >::_Sentry_base::~_Sentry_base
PUBLIC	??1sentry@?$basic_ostream@DU?$char_traits@D@std@@@std@@QAE@XZ ; std::basic_ostream<char,std::char_traits<char> >::sentry::~sentry
PUBLIC	??Bsentry@?$basic_ostream@DU?$char_traits@D@std@@@std@@QBE_NXZ ; std::basic_ostream<char,std::char_traits<char> >::sentry::operator bool
PUBLIC	??$?6DU?$char_traits@D@std@@V?$allocator@D@1@@std@@YAAAV?$basic_ostream@DU?$char_traits@D@std@@@0@AAV10@ABV?$basic_string@DU?$char_traits@D@std@@V?$allocator@D@2@@0@@Z ; std::operator<<<char,std::char_traits<char>,std::allocator<char> >
PUBLIC	??1StyledStreamWriter@Json@@QAE@XZ		; Json::StyledStreamWriter::~StyledStreamWriter
PUBLIC	??0id@locale@std@@QAE@I@Z			; std::locale::id::id
PUBLIC	??_C@_06ECBCCLMB@?$CF?$CD?416g?$AA@		; `string'
PUBLIC	??_C@_07FKPPGBGM@?$CC?2?$AI?$AM?6?$AN?7?$AA@	; `string'
PUBLIC	??_C@_01BJJEKLCA@?$CC?$AA@			; `string'
PUBLIC	??_C@_02MCKKLHBJ@?2?$CC?$AA@			; `string'
PUBLIC	??_C@_02HDBGODGB@?2?2?$AA@			; `string'
PUBLIC	??_C@_02DCNDPIBM@?2b?$AA@			; `string'
PUBLIC	??_C@_02FGLPDNBI@?2f?$AA@			; `string'
PUBLIC	??_C@_02JOGGLHBA@?2n?$AA@			; `string'
PUBLIC	??_C@_02HIBBOKEN@?2r?$AA@			; `string'
PUBLIC	??_C@_02COELENML@?2t?$AA@			; `string'
PUBLIC	??_C@_02DHFAHMIK@?2u?$AA@			; `string'
PUBLIC	??_C@_04MLLLIHIP@null?$AA@			; `string'
PUBLIC	??_C@_01OHGJGJJP@?$FL?$AA@			; `string'
PUBLIC	??_C@_01IHBHIGKO@?0?$AA@			; `string'
PUBLIC	??_C@_01LBDDMOBJ@?$FN?$AA@			; `string'
PUBLIC	??_C@_01HCONENDN@?$HL?$AA@			; `string'
PUBLIC	??_C@_02LMMGGCAJ@?3?5?$AA@			; `string'
PUBLIC	??_C@_01JLIPDDHJ@?3?$AA@			; `string'
PUBLIC	??_C@_01CELHOKLL@?$HN?$AA@			; `string'
PUBLIC	??_C@_02MCILKGOH@?$HL?$HN?$AA@			; `string'
PUBLIC	??_C@_03MCPBMLDJ@?5?3?5?$AA@			; `string'
PUBLIC	??_C@_02GPECMEKF@?$FL?$FN?$AA@			; `string'
PUBLIC	??_C@_02PFNDMDBO@?$FL?5?$AA@			; `string'
PUBLIC	??_C@_02KEGNLNML@?0?5?$AA@			; `string'
PUBLIC	??_C@_02DHOGEDBE@?5?$FN?$AA@			; `string'
PUBLIC	??_C@_01CLKCMJKC@?5?$AA@			; `string'
PUBLIC	??_C@_01GPOEFGEJ@?7?$AA@			; `string'
PUBLIC	??_C@_02EAOCLKAK@ld?$AA@			; `string'
PUBLIC	??_C@_02BDDLJJBK@lu?$AA@			; `string'
PUBLIC	??_C@_02HIKPPMOK@Ld?$AA@			; `string'
PUBLIC	??_C@_02CLHGNPPK@Lu?$AA@			; `string'
PUBLIC	??_C@_02BBAHNLBA@?$CFp?$AA@			; `string'
PUBLIC	??_C@_01DDCIFGEA@E?$AA@				; `string'
PUBLIC	??_C@_01KGKMHCOC@e?$AA@				; `string'
PUBLIC	?_Stz@?$fpos@H@std@@0HB				; std::fpos<int>::_Stz
PUBLIC	?_Psave@?$_Facetptr@V?$num_put@DV?$ostreambuf_iterator@DU?$char_traits@D@std@@@std@@@std@@@std@@2PBVfacet@locale@2@B ; std::_Facetptr<std::num_put<char,std::ostreambuf_iterator<char,std::char_traits<char> > > >::_Psave
PUBLIC	?_Psave@?$_Facetptr@V?$numpunct@D@std@@@std@@2PBVfacet@locale@2@B ; std::_Facetptr<std::numpunct<char> >::_Psave
PUBLIC	??_7FastWriter@Json@@6B@			; Json::FastWriter::`vftable'
PUBLIC	??_7ios_base@std@@6B@				; std::ios_base::`vftable'
PUBLIC	??_7?$basic_ios@DU?$char_traits@D@std@@@std@@6B@ ; std::basic_ios<char,std::char_traits<char> >::`vftable'
PUBLIC	??_7?$basic_streambuf@DU?$char_traits@D@std@@@std@@6B@ ; std::basic_streambuf<char,std::char_traits<char> >::`vftable'
PUBLIC	??_7?$basic_ostream@DU?$char_traits@D@std@@@std@@6B@ ; std::basic_ostream<char,std::char_traits<char> >::`vftable'
PUBLIC	??_8?$basic_ostream@DU?$char_traits@D@std@@@std@@7B@ ; std::basic_ostream<char,std::char_traits<char> >::`vbtable'
PUBLIC	??_7?$basic_stringbuf@DU?$char_traits@D@std@@V?$allocator@D@2@@std@@6B@ ; std::basic_stringbuf<char,std::char_traits<char>,std::allocator<char> >::`vftable'
PUBLIC	??_7?$basic_ostringstream@DU?$char_traits@D@std@@V?$allocator@D@2@@std@@6B@ ; std::basic_ostringstream<char,std::char_traits<char>,std::allocator<char> >::`vftable'
PUBLIC	??_8?$basic_ostringstream@DU?$char_traits@D@std@@V?$allocator@D@2@@std@@7B@ ; std::basic_ostringstream<char,std::char_traits<char>,std::allocator<char> >::`vbtable'
PUBLIC	??_7?$numpunct@D@std@@6B@			; std::numpunct<char>::`vftable'
PUBLIC	??_7?$num_put@DV?$ostreambuf_iterator@DU?$char_traits@D@std@@@std@@@std@@6B@ ; std::num_put<char,std::ostreambuf_iterator<char,std::char_traits<char> > >::`vftable'
PUBLIC	??_7Writer@Json@@6B@				; Json::Writer::`vftable'
EXTRN	_strpbrk:PROC
EXTRN	_strcspn:PROC
EXTRN	_sprintf_s:PROC
EXTRN	_memchr:PROC
EXTRN	__Getcvt:PROC
EXTRN	_localeconv:PROC
EXTRN	??_E?$numpunct@D@std@@MAEPAXI@Z:PROC		; std::numpunct<char>::`vector deleting destructor'
EXTRN	??_E?$num_put@DV?$ostreambuf_iterator@DU?$char_traits@D@std@@@std@@@std@@MAEPAXI@Z:PROC ; std::num_put<char,std::ostreambuf_iterator<char,std::char_traits<char> > >::`vector deleting destructor'
EXTRN	?setw@std@@YA?AU?$_Smanip@H@1@H@Z:PROC		; std::setw
EXTRN	?_Addstd@ios_base@std@@SAXPAV12@@Z:PROC		; std::ios_base::_Addstd
EXTRN	??0_Mutex@std@@QAE@XZ:PROC			; std::_Mutex::_Mutex
EXTRN	?_Init@locale@std@@CAPAV_Locimp@12@XZ:PROC	; std::locale::_Init
EXTRN	?_Ios_base_dtor@ios_base@std@@CAXPAV12@@Z:PROC	; std::ios_base::_Ios_base_dtor
EXTRN	??_Eios_base@std@@UAEPAXI@Z:PROC		; std::ios_base::`vector deleting destructor'
EXTRN	??_E?$basic_ios@DU?$char_traits@D@std@@@std@@UAEPAXI@Z:PROC ; std::basic_ios<char,std::char_traits<char> >::`vector deleting destructor'
EXTRN	??_E?$basic_ostream@DU?$char_traits@D@std@@@std@@UAEPAXI@Z:PROC ; std::basic_ostream<char,std::char_traits<char> >::`vector deleting destructor'
EXTRN	??1_Mutex@std@@QAE@XZ:PROC			; std::_Mutex::~_Mutex
EXTRN	??_E?$basic_streambuf@DU?$char_traits@D@std@@@std@@UAEPAXI@Z:PROC ; std::basic_streambuf<char,std::char_traits<char> >::`vector deleting destructor'
EXTRN	?_BADOFF@std@@3JB:DWORD				; std::_BADOFF
EXTRN	??_E?$basic_stringbuf@DU?$char_traits@D@std@@V?$allocator@D@2@@std@@UAEPAXI@Z:PROC ; std::basic_stringbuf<char,std::char_traits<char>,std::allocator<char> >::`vector deleting destructor'
EXTRN	??_E?$basic_ostringstream@DU?$char_traits@D@std@@V?$allocator@D@2@@std@@UAEPAXI@Z:PROC ; std::basic_ostringstream<char,std::char_traits<char>,std::allocator<char> >::`vector deleting destructor'
EXTRN	??_EFastWriter@Json@@UAEPAXI@Z:PROC		; Json::FastWriter::`vector deleting destructor'
EXTRN	??_EWriter@Json@@UAEPAXI@Z:PROC			; Json::Writer::`vector deleting destructor'
EXTRN	?uncaught_exception@std@@YA_NXZ:PROC		; std::uncaught_exception
;	COMDAT ?_Psave@?$_Facetptr@V?$num_put@DV?$ostreambuf_iterator@DU?$char_traits@D@std@@@std@@@std@@@std@@2PBVfacet@locale@2@B
_BSS	SEGMENT
?_Psave@?$_Facetptr@V?$num_put@DV?$ostreambuf_iterator@DU?$char_traits@D@std@@@std@@@std@@@std@@2PBVfacet@locale@2@B DD 01H DUP (?) ; std::_Facetptr<std::num_put<char,std::ostreambuf_iterator<char,std::char_traits<char> > > >::_Psave
_BSS	ENDS
;	COMDAT ?_Psave@?$_Facetptr@V?$numpunct@D@std@@@std@@2PBVfacet@locale@2@B
_BSS	SEGMENT
?_Psave@?$_Facetptr@V?$numpunct@D@std@@@std@@2PBVfacet@locale@2@B DD 01H DUP (?) ; std::_Facetptr<std::numpunct<char> >::_Psave
;	COMDAT ??_7Writer@Json@@6B@
CONST	SEGMENT
??_7Writer@Json@@6B@ DD FLAT:??_R4Writer@Json@@6B@	; Json::Writer::`vftable'
	DD	FLAT:??_EWriter@Json@@UAEPAXI@Z
	DD	FLAT:__purecall
CONST	ENDS
;	COMDAT ??_R4Writer@Json@@6B@
rdata$r	SEGMENT
??_R4Writer@Json@@6B@ DD 00H				; Json::Writer::`RTTI Complete Object Locator'
	DD	00H
	DD	00H
	DD	FLAT:??_R0?AVWriter@Json@@@8
	DD	FLAT:??_R3Writer@Json@@8
rdata$r	ENDS
;	COMDAT ??_7?$num_put@DV?$ostreambuf_iterator@DU?$char_traits@D@std@@@std@@@std@@6B@
CONST	SEGMENT
??_7?$num_put@DV?$ostreambuf_iterator@DU?$char_traits@D@std@@@std@@@std@@6B@ DD FLAT:??_R4?$num_put@DV?$ostreambuf_iterator@DU?$char_traits@D@std@@@std@@@std@@6B@ ; std::num_put<char,std::ostreambuf_iterator<char,std::char_traits<char> > >::`vftable'
	DD	FLAT:??_E?$num_put@DV?$ostreambuf_iterator@DU?$char_traits@D@std@@@std@@@std@@MAEPAXI@Z
	DD	FLAT:?do_put@?$num_put@DV?$ostreambuf_iterator@DU?$char_traits@D@std@@@std@@@std@@MBE?AV?$ostreambuf_iterator@DU?$char_traits@D@std@@@2@V32@AAVios_base@2@DPBX@Z
	DD	FLAT:?do_put@?$num_put@DV?$ostreambuf_iterator@DU?$char_traits@D@std@@@std@@@std@@MBE?AV?$ostreambuf_iterator@DU?$char_traits@D@std@@@2@V32@AAVios_base@2@DO@Z
	DD	FLAT:?do_put@?$num_put@DV?$ostreambuf_iterator@DU?$char_traits@D@std@@@std@@@std@@MBE?AV?$ostreambuf_iterator@DU?$char_traits@D@std@@@2@V32@AAVios_base@2@DN@Z
	DD	FLAT:?do_put@?$num_put@DV?$ostreambuf_iterator@DU?$char_traits@D@std@@@std@@@std@@MBE?AV?$ostreambuf_iterator@DU?$char_traits@D@std@@@2@V32@AAVios_base@2@D_K@Z
	DD	FLAT:?do_put@?$num_put@DV?$ostreambuf_iterator@DU?$char_traits@D@std@@@std@@@std@@MBE?AV?$ostreambuf_iterator@DU?$char_traits@D@std@@@2@V32@AAVios_base@2@D_J@Z
	DD	FLAT:?do_put@?$num_put@DV?$ostreambuf_iterator@DU?$char_traits@D@std@@@std@@@std@@MBE?AV?$ostreambuf_iterator@DU?$char_traits@D@std@@@2@V32@AAVios_base@2@DK@Z
	DD	FLAT:?do_put@?$num_put@DV?$ostreambuf_iterator@DU?$char_traits@D@std@@@std@@@std@@MBE?AV?$ostreambuf_iterator@DU?$char_traits@D@std@@@2@V32@AAVios_base@2@DJ@Z
	DD	FLAT:?do_put@?$num_put@DV?$ostreambuf_iterator@DU?$char_traits@D@std@@@std@@@std@@MBE?AV?$ostreambuf_iterator@DU?$char_traits@D@std@@@2@V32@AAVios_base@2@D_N@Z
CONST	ENDS
;	COMDAT ??_R4?$num_put@DV?$ostreambuf_iterator@DU?$char_traits@D@std@@@std@@@std@@6B@
rdata$r	SEGMENT
??_R4?$num_put@DV?$ostreambuf_iterator@DU?$char_traits@D@std@@@std@@@std@@6B@ DD 00H ; std::num_put<char,std::ostreambuf_iterator<char,std::char_traits<char> > >::`RTTI Complete Object Locator'
	DD	00H
	DD	00H
	DD	FLAT:??_R0?AV?$num_put@DV?$ostreambuf_iterator@DU?$char_traits@D@std@@@std@@@std@@@8
	DD	FLAT:??_R3?$num_put@DV?$ostreambuf_iterator@DU?$char_traits@D@std@@@std@@@std@@8
rdata$r	ENDS
;	COMDAT ??_R3?$num_put@DV?$ostreambuf_iterator@DU?$char_traits@D@std@@@std@@@std@@8
rdata$r	SEGMENT
??_R3?$num_put@DV?$ostreambuf_iterator@DU?$char_traits@D@std@@@std@@@std@@8 DD 00H ; std::num_put<char,std::ostreambuf_iterator<char,std::char_traits<char> > >::`RTTI Class Hierarchy Descriptor'
	DD	00H
	DD	02H
	DD	FLAT:??_R2?$num_put@DV?$ostreambuf_iterator@DU?$char_traits@D@std@@@std@@@std@@8
rdata$r	ENDS
;	COMDAT ??_R2?$num_put@DV?$ostreambuf_iterator@DU?$char_traits@D@std@@@std@@@std@@8
rdata$r	SEGMENT
??_R2?$num_put@DV?$ostreambuf_iterator@DU?$char_traits@D@std@@@std@@@std@@8 DD FLAT:??_R1A@?0A@EA@?$num_put@DV?$ostreambuf_iterator@DU?$char_traits@D@std@@@std@@@std@@8 ; std::num_put<char,std::ostreambuf_iterator<char,std::char_traits<char> > >::`RTTI Base Class Array'
	DD	FLAT:??_R1A@?0A@EA@facet@locale@std@@8
rdata$r	ENDS
;	COMDAT ??_R1A@?0A@EA@?$num_put@DV?$ostreambuf_iterator@DU?$char_traits@D@std@@@std@@@std@@8
rdata$r	SEGMENT
??_R1A@?0A@EA@?$num_put@DV?$ostreambuf_iterator@DU?$char_traits@D@std@@@std@@@std@@8 DD FLAT:??_R0?AV?$num_put@DV?$ostreambuf_iterator@DU?$char_traits@D@std@@@std@@@std@@@8 ; std::num_put<char,std::ostreambuf_iterator<char,std::char_traits<char> > >::`RTTI Base Class Descriptor at (0,-1,0,64)'
	DD	01H
	DD	00H
	DD	0ffffffffH
	DD	00H
	DD	040H
	DD	FLAT:??_R3?$num_put@DV?$ostreambuf_iterator@DU?$char_traits@D@std@@@std@@@std@@8
rdata$r	ENDS
;	COMDAT ??_R0?AV?$num_put@DV?$ostreambuf_iterator@DU?$char_traits@D@std@@@std@@@std@@@8
_DATA	SEGMENT
??_R0?AV?$num_put@DV?$ostreambuf_iterator@DU?$char_traits@D@std@@@std@@@std@@@8 DD FLAT:??_7type_info@@6B@ ; std::num_put<char,std::ostreambuf_iterator<char,std::char_traits<char> > > `RTTI Type Descriptor'
	DD	00H
	DB	'.?AV?$num_put@DV?$ostreambuf_iterator@DU?$char_traits@D@'
	DB	'std@@@std@@@std@@', 00H
_DATA	ENDS
;	COMDAT ??_7?$numpunct@D@std@@6B@
CONST	SEGMENT
??_7?$numpunct@D@std@@6B@ DD FLAT:??_R4?$numpunct@D@std@@6B@ ; std::numpunct<char>::`vftable'
	DD	FLAT:??_E?$numpunct@D@std@@MAEPAXI@Z
	DD	FLAT:?do_decimal_point@?$numpunct@D@std@@MBEDXZ
	DD	FLAT:?do_thousands_sep@?$numpunct@D@std@@MBEDXZ
	DD	FLAT:?do_grouping@?$numpunct@D@std@@MBE?AV?$basic_string@DU?$char_traits@D@std@@V?$allocator@D@2@@2@XZ
	DD	FLAT:?do_falsename@?$numpunct@D@std@@MBE?AV?$basic_string@DU?$char_traits@D@std@@V?$allocator@D@2@@2@XZ
	DD	FLAT:?do_truename@?$numpunct@D@std@@MBE?AV?$basic_string@DU?$char_traits@D@std@@V?$allocator@D@2@@2@XZ
CONST	ENDS
;	COMDAT ??_R4?$numpunct@D@std@@6B@
rdata$r	SEGMENT
??_R4?$numpunct@D@std@@6B@ DD 00H			; std::numpunct<char>::`RTTI Complete Object Locator'
	DD	00H
	DD	00H
	DD	FLAT:??_R0?AV?$numpunct@D@std@@@8
	DD	FLAT:??_R3?$numpunct@D@std@@8
rdata$r	ENDS
;	COMDAT ??_R3?$numpunct@D@std@@8
rdata$r	SEGMENT
??_R3?$numpunct@D@std@@8 DD 00H				; std::numpunct<char>::`RTTI Class Hierarchy Descriptor'
	DD	00H
	DD	02H
	DD	FLAT:??_R2?$numpunct@D@std@@8
rdata$r	ENDS
;	COMDAT ??_R2?$numpunct@D@std@@8
rdata$r	SEGMENT
??_R2?$numpunct@D@std@@8 DD FLAT:??_R1A@?0A@EA@?$numpunct@D@std@@8 ; std::numpunct<char>::`RTTI Base Class Array'
	DD	FLAT:??_R1A@?0A@EA@facet@locale@std@@8
rdata$r	ENDS
;	COMDAT ??_R1A@?0A@EA@?$numpunct@D@std@@8
rdata$r	SEGMENT
??_R1A@?0A@EA@?$numpunct@D@std@@8 DD FLAT:??_R0?AV?$numpunct@D@std@@@8 ; std::numpunct<char>::`RTTI Base Class Descriptor at (0,-1,0,64)'
	DD	01H
	DD	00H
	DD	0ffffffffH
	DD	00H
	DD	040H
	DD	FLAT:??_R3?$numpunct@D@std@@8
rdata$r	ENDS
;	COMDAT ??_R0?AV?$numpunct@D@std@@@8
_DATA	SEGMENT
??_R0?AV?$numpunct@D@std@@@8 DD FLAT:??_7type_info@@6B@	; std::numpunct<char> `RTTI Type Descriptor'
	DD	00H
	DB	'.?AV?$numpunct@D@std@@', 00H
_DATA	ENDS
;	COMDAT ??_8?$basic_ostringstream@DU?$char_traits@D@std@@V?$allocator@D@2@@std@@7B@
CONST	SEGMENT
??_8?$basic_ostringstream@DU?$char_traits@D@std@@V?$allocator@D@2@@std@@7B@ DD 00H ; std::basic_ostringstream<char,std::char_traits<char>,std::allocator<char> >::`vbtable'
	DD	04cH
CONST	ENDS
;	COMDAT ??_7?$basic_ostringstream@DU?$char_traits@D@std@@V?$allocator@D@2@@std@@6B@
CONST	SEGMENT
??_7?$basic_ostringstream@DU?$char_traits@D@std@@V?$allocator@D@2@@std@@6B@ DD FLAT:??_R4?$basic_ostringstream@DU?$char_traits@D@std@@V?$allocator@D@2@@std@@6B@ ; std::basic_ostringstream<char,std::char_traits<char>,std::allocator<char> >::`vftable'
	DD	FLAT:??_E?$basic_ostringstream@DU?$char_traits@D@std@@V?$allocator@D@2@@std@@UAEPAXI@Z
CONST	ENDS
;	COMDAT ??_R4?$basic_ostringstream@DU?$char_traits@D@std@@V?$allocator@D@2@@std@@6B@
rdata$r	SEGMENT
??_R4?$basic_ostringstream@DU?$char_traits@D@std@@V?$allocator@D@2@@std@@6B@ DD 00H ; std::basic_ostringstream<char,std::char_traits<char>,std::allocator<char> >::`RTTI Complete Object Locator'
	DD	04cH
	DD	00H
	DD	FLAT:??_R0?AV?$basic_ostringstream@DU?$char_traits@D@std@@V?$allocator@D@2@@std@@@8
	DD	FLAT:??_R3?$basic_ostringstream@DU?$char_traits@D@std@@V?$allocator@D@2@@std@@8
rdata$r	ENDS
;	COMDAT ??_R3?$basic_ostringstream@DU?$char_traits@D@std@@V?$allocator@D@2@@std@@8
rdata$r	SEGMENT
??_R3?$basic_ostringstream@DU?$char_traits@D@std@@V?$allocator@D@2@@std@@8 DD 00H ; std::basic_ostringstream<char,std::char_traits<char>,std::allocator<char> >::`RTTI Class Hierarchy Descriptor'
	DD	00H
	DD	05H
	DD	FLAT:??_R2?$basic_ostringstream@DU?$char_traits@D@std@@V?$allocator@D@2@@std@@8
rdata$r	ENDS
;	COMDAT ??_R2?$basic_ostringstream@DU?$char_traits@D@std@@V?$allocator@D@2@@std@@8
rdata$r	SEGMENT
??_R2?$basic_ostringstream@DU?$char_traits@D@std@@V?$allocator@D@2@@std@@8 DD FLAT:??_R1A@?0A@EA@?$basic_ostringstream@DU?$char_traits@D@std@@V?$allocator@D@2@@std@@8 ; std::basic_ostringstream<char,std::char_traits<char>,std::allocator<char> >::`RTTI Base Class Array'
	DD	FLAT:??_R1A@?0A@EA@?$basic_ostream@DU?$char_traits@D@std@@@std@@8
	DD	FLAT:??_R1A@A@3FA@?$basic_ios@DU?$char_traits@D@std@@@std@@8
	DD	FLAT:??_R1A@A@3EA@ios_base@std@@8
	DD	FLAT:??_R13A@3EA@?$_Iosb@H@std@@8
rdata$r	ENDS
;	COMDAT ??_R1A@?0A@EA@?$basic_ostringstream@DU?$char_traits@D@std@@V?$allocator@D@2@@std@@8
rdata$r	SEGMENT
??_R1A@?0A@EA@?$basic_ostringstream@DU?$char_traits@D@std@@V?$allocator@D@2@@std@@8 DD FLAT:??_R0?AV?$basic_ostringstream@DU?$char_traits@D@std@@V?$allocator@D@2@@std@@@8 ; std::basic_ostringstream<char,std::char_traits<char>,std::allocator<char> >::`RTTI Base Class Descriptor at (0,-1,0,64)'
	DD	04H
	DD	00H
	DD	0ffffffffH
	DD	00H
	DD	040H
	DD	FLAT:??_R3?$basic_ostringstream@DU?$char_traits@D@std@@V?$allocator@D@2@@std@@8
rdata$r	ENDS
;	COMDAT ??_R0?AV?$basic_ostringstream@DU?$char_traits@D@std@@V?$allocator@D@2@@std@@@8
_DATA	SEGMENT
??_R0?AV?$basic_ostringstream@DU?$char_traits@D@std@@V?$allocator@D@2@@std@@@8 DD FLAT:??_7type_info@@6B@ ; std::basic_ostringstream<char,std::char_traits<char>,std::allocator<char> > `RTTI Type Descriptor'
	DD	00H
	DB	'.?AV?$basic_ostringstream@DU?$char_traits@D@std@@V?$allo'
	DB	'cator@D@2@@std@@', 00H
_DATA	ENDS
;	COMDAT ??_7?$basic_stringbuf@DU?$char_traits@D@std@@V?$allocator@D@2@@std@@6B@
CONST	SEGMENT
??_7?$basic_stringbuf@DU?$char_traits@D@std@@V?$allocator@D@2@@std@@6B@ DD FLAT:??_R4?$basic_stringbuf@DU?$char_traits@D@std@@V?$allocator@D@2@@std@@6B@ ; std::basic_stringbuf<char,std::char_traits<char>,std::allocator<char> >::`vftable'
	DD	FLAT:??_E?$basic_stringbuf@DU?$char_traits@D@std@@V?$allocator@D@2@@std@@UAEPAXI@Z
	DD	FLAT:?overflow@?$basic_stringbuf@DU?$char_traits@D@std@@V?$allocator@D@2@@std@@MAEHH@Z
	DD	FLAT:?pbackfail@?$basic_stringbuf@DU?$char_traits@D@std@@V?$allocator@D@2@@std@@MAEHH@Z
	DD	FLAT:?showmanyc@?$basic_streambuf@DU?$char_traits@D@std@@@std@@MAEHXZ
	DD	FLAT:?underflow@?$basic_stringbuf@DU?$char_traits@D@std@@V?$allocator@D@2@@std@@MAEHXZ
	DD	FLAT:?uflow@?$basic_streambuf@DU?$char_traits@D@std@@@std@@MAEHXZ
	DD	FLAT:?xsgetn@?$basic_streambuf@DU?$char_traits@D@std@@@std@@MAEHPADH@Z
	DD	FLAT:?_Xsgetn_s@?$basic_streambuf@DU?$char_traits@D@std@@@std@@MAEHPADIH@Z
	DD	FLAT:?xsputn@?$basic_streambuf@DU?$char_traits@D@std@@@std@@MAEHPBDH@Z
	DD	FLAT:?seekoff@?$basic_stringbuf@DU?$char_traits@D@std@@V?$allocator@D@2@@std@@MAE?AV?$fpos@H@2@JHH@Z
	DD	FLAT:?seekpos@?$basic_stringbuf@DU?$char_traits@D@std@@V?$allocator@D@2@@std@@MAE?AV?$fpos@H@2@V32@H@Z
	DD	FLAT:?setbuf@?$basic_streambuf@DU?$char_traits@D@std@@@std@@MAEPAV12@PADH@Z
	DD	FLAT:?sync@?$basic_streambuf@DU?$char_traits@D@std@@@std@@MAEHXZ
	DD	FLAT:?imbue@?$basic_streambuf@DU?$char_traits@D@std@@@std@@MAEXABVlocale@2@@Z
CONST	ENDS
;	COMDAT ??_R4?$basic_stringbuf@DU?$char_traits@D@std@@V?$allocator@D@2@@std@@6B@
rdata$r	SEGMENT
??_R4?$basic_stringbuf@DU?$char_traits@D@std@@V?$allocator@D@2@@std@@6B@ DD 00H ; std::basic_stringbuf<char,std::char_traits<char>,std::allocator<char> >::`RTTI Complete Object Locator'
	DD	00H
	DD	00H
	DD	FLAT:??_R0?AV?$basic_stringbuf@DU?$char_traits@D@std@@V?$allocator@D@2@@std@@@8
	DD	FLAT:??_R3?$basic_stringbuf@DU?$char_traits@D@std@@V?$allocator@D@2@@std@@8
rdata$r	ENDS
;	COMDAT ??_R3?$basic_stringbuf@DU?$char_traits@D@std@@V?$allocator@D@2@@std@@8
rdata$r	SEGMENT
??_R3?$basic_stringbuf@DU?$char_traits@D@std@@V?$allocator@D@2@@std@@8 DD 00H ; std::basic_stringbuf<char,std::char_traits<char>,std::allocator<char> >::`RTTI Class Hierarchy Descriptor'
	DD	00H
	DD	02H
	DD	FLAT:??_R2?$basic_stringbuf@DU?$char_traits@D@std@@V?$allocator@D@2@@std@@8
rdata$r	ENDS
;	COMDAT ??_R2?$basic_stringbuf@DU?$char_traits@D@std@@V?$allocator@D@2@@std@@8
rdata$r	SEGMENT
??_R2?$basic_stringbuf@DU?$char_traits@D@std@@V?$allocator@D@2@@std@@8 DD FLAT:??_R1A@?0A@EA@?$basic_stringbuf@DU?$char_traits@D@std@@V?$allocator@D@2@@std@@8 ; std::basic_stringbuf<char,std::char_traits<char>,std::allocator<char> >::`RTTI Base Class Array'
	DD	FLAT:??_R1A@?0A@EA@?$basic_streambuf@DU?$char_traits@D@std@@@std@@8
rdata$r	ENDS
;	COMDAT ??_R1A@?0A@EA@?$basic_stringbuf@DU?$char_traits@D@std@@V?$allocator@D@2@@std@@8
rdata$r	SEGMENT
??_R1A@?0A@EA@?$basic_stringbuf@DU?$char_traits@D@std@@V?$allocator@D@2@@std@@8 DD FLAT:??_R0?AV?$basic_stringbuf@DU?$char_traits@D@std@@V?$allocator@D@2@@std@@@8 ; std::basic_stringbuf<char,std::char_traits<char>,std::allocator<char> >::`RTTI Base Class Descriptor at (0,-1,0,64)'
	DD	01H
	DD	00H
	DD	0ffffffffH
	DD	00H
	DD	040H
	DD	FLAT:??_R3?$basic_stringbuf@DU?$char_traits@D@std@@V?$allocator@D@2@@std@@8
rdata$r	ENDS
;	COMDAT ??_R0?AV?$basic_stringbuf@DU?$char_traits@D@std@@V?$allocator@D@2@@std@@@8
_DATA	SEGMENT
??_R0?AV?$basic_stringbuf@DU?$char_traits@D@std@@V?$allocator@D@2@@std@@@8 DD FLAT:??_7type_info@@6B@ ; std::basic_stringbuf<char,std::char_traits<char>,std::allocator<char> > `RTTI Type Descriptor'
	DD	00H
	DB	'.?AV?$basic_stringbuf@DU?$char_traits@D@std@@V?$allocato'
	DB	'r@D@2@@std@@', 00H
_DATA	ENDS
;	COMDAT ??_8?$basic_ostream@DU?$char_traits@D@std@@@std@@7B@
CONST	SEGMENT
??_8?$basic_ostream@DU?$char_traits@D@std@@@std@@7B@ DD 00H ; std::basic_ostream<char,std::char_traits<char> >::`vbtable'
	DD	04H
CONST	ENDS
;	COMDAT ??_7?$basic_ostream@DU?$char_traits@D@std@@@std@@6B@
CONST	SEGMENT
??_7?$basic_ostream@DU?$char_traits@D@std@@@std@@6B@ DD FLAT:??_R4?$basic_ostream@DU?$char_traits@D@std@@@std@@6B@ ; std::basic_ostream<char,std::char_traits<char> >::`vftable'
	DD	FLAT:??_E?$basic_ostream@DU?$char_traits@D@std@@@std@@UAEPAXI@Z
CONST	ENDS
;	COMDAT ??_R4?$basic_ostream@DU?$char_traits@D@std@@@std@@6B@
rdata$r	SEGMENT
??_R4?$basic_ostream@DU?$char_traits@D@std@@@std@@6B@ DD 00H ; std::basic_ostream<char,std::char_traits<char> >::`RTTI Complete Object Locator'
	DD	04H
	DD	00H
	DD	FLAT:??_R0?AV?$basic_ostream@DU?$char_traits@D@std@@@std@@@8
	DD	FLAT:??_R3?$basic_ostream@DU?$char_traits@D@std@@@std@@8
rdata$r	ENDS
;	COMDAT ??_R3?$basic_ostream@DU?$char_traits@D@std@@@std@@8
rdata$r	SEGMENT
??_R3?$basic_ostream@DU?$char_traits@D@std@@@std@@8 DD 00H ; std::basic_ostream<char,std::char_traits<char> >::`RTTI Class Hierarchy Descriptor'
	DD	00H
	DD	04H
	DD	FLAT:??_R2?$basic_ostream@DU?$char_traits@D@std@@@std@@8
rdata$r	ENDS
;	COMDAT ??_R2?$basic_ostream@DU?$char_traits@D@std@@@std@@8
rdata$r	SEGMENT
??_R2?$basic_ostream@DU?$char_traits@D@std@@@std@@8 DD FLAT:??_R1A@?0A@EA@?$basic_ostream@DU?$char_traits@D@std@@@std@@8 ; std::basic_ostream<char,std::char_traits<char> >::`RTTI Base Class Array'
	DD	FLAT:??_R1A@A@3FA@?$basic_ios@DU?$char_traits@D@std@@@std@@8
	DD	FLAT:??_R1A@A@3EA@ios_base@std@@8
	DD	FLAT:??_R13A@3EA@?$_Iosb@H@std@@8
rdata$r	ENDS
;	COMDAT ??_R13A@3EA@?$_Iosb@H@std@@8
rdata$r	SEGMENT
??_R13A@3EA@?$_Iosb@H@std@@8 DD FLAT:??_R0?AV?$_Iosb@H@std@@@8 ; std::_Iosb<int>::`RTTI Base Class Descriptor at (4,0,4,64)'
	DD	00H
	DD	04H
	DD	00H
	DD	04H
	DD	040H
	DD	FLAT:??_R3?$_Iosb@H@std@@8
rdata$r	ENDS
;	COMDAT ??_R1A@A@3EA@ios_base@std@@8
rdata$r	SEGMENT
??_R1A@A@3EA@ios_base@std@@8 DD FLAT:??_R0?AVios_base@std@@@8 ; std::ios_base::`RTTI Base Class Descriptor at (0,0,4,64)'
	DD	01H
	DD	00H
	DD	00H
	DD	04H
	DD	040H
	DD	FLAT:??_R3ios_base@std@@8
rdata$r	ENDS
;	COMDAT ??_R1A@A@3FA@?$basic_ios@DU?$char_traits@D@std@@@std@@8
rdata$r	SEGMENT
??_R1A@A@3FA@?$basic_ios@DU?$char_traits@D@std@@@std@@8 DD FLAT:??_R0?AV?$basic_ios@DU?$char_traits@D@std@@@std@@@8 ; std::basic_ios<char,std::char_traits<char> >::`RTTI Base Class Descriptor at (0,0,4,80)'
	DD	02H
	DD	00H
	DD	00H
	DD	04H
	DD	050H
	DD	FLAT:??_R3?$basic_ios@DU?$char_traits@D@std@@@std@@8
rdata$r	ENDS
;	COMDAT ??_R1A@?0A@EA@?$basic_ostream@DU?$char_traits@D@std@@@std@@8
rdata$r	SEGMENT
??_R1A@?0A@EA@?$basic_ostream@DU?$char_traits@D@std@@@std@@8 DD FLAT:??_R0?AV?$basic_ostream@DU?$char_traits@D@std@@@std@@@8 ; std::basic_ostream<char,std::char_traits<char> >::`RTTI Base Class Descriptor at (0,-1,0,64)'
	DD	03H
	DD	00H
	DD	0ffffffffH
	DD	00H
	DD	040H
	DD	FLAT:??_R3?$basic_ostream@DU?$char_traits@D@std@@@std@@8
rdata$r	ENDS
;	COMDAT ??_R0?AV?$basic_ostream@DU?$char_traits@D@std@@@std@@@8
_DATA	SEGMENT
??_R0?AV?$basic_ostream@DU?$char_traits@D@std@@@std@@@8 DD FLAT:??_7type_info@@6B@ ; std::basic_ostream<char,std::char_traits<char> > `RTTI Type Descriptor'
	DD	00H
	DB	'.?AV?$basic_ostream@DU?$char_traits@D@std@@@std@@', 00H
_DATA	ENDS
;	COMDAT ??_7?$basic_streambuf@DU?$char_traits@D@std@@@std@@6B@
CONST	SEGMENT
??_7?$basic_streambuf@DU?$char_traits@D@std@@@std@@6B@ DD FLAT:??_R4?$basic_streambuf@DU?$char_traits@D@std@@@std@@6B@ ; std::basic_streambuf<char,std::char_traits<char> >::`vftable'
	DD	FLAT:??_E?$basic_streambuf@DU?$char_traits@D@std@@@std@@UAEPAXI@Z
	DD	FLAT:?overflow@?$basic_streambuf@DU?$char_traits@D@std@@@std@@MAEHH@Z
	DD	FLAT:?pbackfail@?$basic_streambuf@DU?$char_traits@D@std@@@std@@MAEHH@Z
	DD	FLAT:?showmanyc@?$basic_streambuf@DU?$char_traits@D@std@@@std@@MAEHXZ
	DD	FLAT:?underflow@?$basic_streambuf@DU?$char_traits@D@std@@@std@@MAEHXZ
	DD	FLAT:?uflow@?$basic_streambuf@DU?$char_traits@D@std@@@std@@MAEHXZ
	DD	FLAT:?xsgetn@?$basic_streambuf@DU?$char_traits@D@std@@@std@@MAEHPADH@Z
	DD	FLAT:?_Xsgetn_s@?$basic_streambuf@DU?$char_traits@D@std@@@std@@MAEHPADIH@Z
	DD	FLAT:?xsputn@?$basic_streambuf@DU?$char_traits@D@std@@@std@@MAEHPBDH@Z
	DD	FLAT:?seekoff@?$basic_streambuf@DU?$char_traits@D@std@@@std@@MAE?AV?$fpos@H@2@JHH@Z
	DD	FLAT:?seekpos@?$basic_streambuf@DU?$char_traits@D@std@@@std@@MAE?AV?$fpos@H@2@V32@H@Z
	DD	FLAT:?setbuf@?$basic_streambuf@DU?$char_traits@D@std@@@std@@MAEPAV12@PADH@Z
	DD	FLAT:?sync@?$basic_streambuf@DU?$char_traits@D@std@@@std@@MAEHXZ
	DD	FLAT:?imbue@?$basic_streambuf@DU?$char_traits@D@std@@@std@@MAEXABVlocale@2@@Z
CONST	ENDS
;	COMDAT ??_R4?$basic_streambuf@DU?$char_traits@D@std@@@std@@6B@
rdata$r	SEGMENT
??_R4?$basic_streambuf@DU?$char_traits@D@std@@@std@@6B@ DD 00H ; std::basic_streambuf<char,std::char_traits<char> >::`RTTI Complete Object Locator'
	DD	00H
	DD	00H
	DD	FLAT:??_R0?AV?$basic_streambuf@DU?$char_traits@D@std@@@std@@@8
	DD	FLAT:??_R3?$basic_streambuf@DU?$char_traits@D@std@@@std@@8
rdata$r	ENDS
;	COMDAT ??_R3?$basic_streambuf@DU?$char_traits@D@std@@@std@@8
rdata$r	SEGMENT
??_R3?$basic_streambuf@DU?$char_traits@D@std@@@std@@8 DD 00H ; std::basic_streambuf<char,std::char_traits<char> >::`RTTI Class Hierarchy Descriptor'
	DD	00H
	DD	01H
	DD	FLAT:??_R2?$basic_streambuf@DU?$char_traits@D@std@@@std@@8
rdata$r	ENDS
;	COMDAT ??_R2?$basic_streambuf@DU?$char_traits@D@std@@@std@@8
rdata$r	SEGMENT
??_R2?$basic_streambuf@DU?$char_traits@D@std@@@std@@8 DD FLAT:??_R1A@?0A@EA@?$basic_streambuf@DU?$char_traits@D@std@@@std@@8 ; std::basic_streambuf<char,std::char_traits<char> >::`RTTI Base Class Array'
rdata$r	ENDS
;	COMDAT ??_R1A@?0A@EA@?$basic_streambuf@DU?$char_traits@D@std@@@std@@8
rdata$r	SEGMENT
??_R1A@?0A@EA@?$basic_streambuf@DU?$char_traits@D@std@@@std@@8 DD FLAT:??_R0?AV?$basic_streambuf@DU?$char_traits@D@std@@@std@@@8 ; std::basic_streambuf<char,std::char_traits<char> >::`RTTI Base Class Descriptor at (0,-1,0,64)'
	DD	00H
	DD	00H
	DD	0ffffffffH
	DD	00H
	DD	040H
	DD	FLAT:??_R3?$basic_streambuf@DU?$char_traits@D@std@@@std@@8
rdata$r	ENDS
;	COMDAT ??_R0?AV?$basic_streambuf@DU?$char_traits@D@std@@@std@@@8
_DATA	SEGMENT
??_R0?AV?$basic_streambuf@DU?$char_traits@D@std@@@std@@@8 DD FLAT:??_7type_info@@6B@ ; std::basic_streambuf<char,std::char_traits<char> > `RTTI Type Descriptor'
	DD	00H
	DB	'.?AV?$basic_streambuf@DU?$char_traits@D@std@@@std@@', 00H
_DATA	ENDS
;	COMDAT ??_7?$basic_ios@DU?$char_traits@D@std@@@std@@6B@
CONST	SEGMENT
??_7?$basic_ios@DU?$char_traits@D@std@@@std@@6B@ DD FLAT:??_R4?$basic_ios@DU?$char_traits@D@std@@@std@@6B@ ; std::basic_ios<char,std::char_traits<char> >::`vftable'
	DD	FLAT:??_E?$basic_ios@DU?$char_traits@D@std@@@std@@UAEPAXI@Z
CONST	ENDS
;	COMDAT ??_R4?$basic_ios@DU?$char_traits@D@std@@@std@@6B@
rdata$r	SEGMENT
??_R4?$basic_ios@DU?$char_traits@D@std@@@std@@6B@ DD 00H ; std::basic_ios<char,std::char_traits<char> >::`RTTI Complete Object Locator'
	DD	00H
	DD	00H
	DD	FLAT:??_R0?AV?$basic_ios@DU?$char_traits@D@std@@@std@@@8
	DD	FLAT:??_R3?$basic_ios@DU?$char_traits@D@std@@@std@@8
rdata$r	ENDS
;	COMDAT ??_R3?$basic_ios@DU?$char_traits@D@std@@@std@@8
rdata$r	SEGMENT
??_R3?$basic_ios@DU?$char_traits@D@std@@@std@@8 DD 00H	; std::basic_ios<char,std::char_traits<char> >::`RTTI Class Hierarchy Descriptor'
	DD	00H
	DD	03H
	DD	FLAT:??_R2?$basic_ios@DU?$char_traits@D@std@@@std@@8
rdata$r	ENDS
;	COMDAT ??_R2?$basic_ios@DU?$char_traits@D@std@@@std@@8
rdata$r	SEGMENT
??_R2?$basic_ios@DU?$char_traits@D@std@@@std@@8 DD FLAT:??_R1A@?0A@EA@?$basic_ios@DU?$char_traits@D@std@@@std@@8 ; std::basic_ios<char,std::char_traits<char> >::`RTTI Base Class Array'
	DD	FLAT:??_R1A@?0A@EA@ios_base@std@@8
	DD	FLAT:??_R13?0A@EA@?$_Iosb@H@std@@8
rdata$r	ENDS
;	COMDAT ??_R1A@?0A@EA@?$basic_ios@DU?$char_traits@D@std@@@std@@8
rdata$r	SEGMENT
??_R1A@?0A@EA@?$basic_ios@DU?$char_traits@D@std@@@std@@8 DD FLAT:??_R0?AV?$basic_ios@DU?$char_traits@D@std@@@std@@@8 ; std::basic_ios<char,std::char_traits<char> >::`RTTI Base Class Descriptor at (0,-1,0,64)'
	DD	02H
	DD	00H
	DD	0ffffffffH
	DD	00H
	DD	040H
	DD	FLAT:??_R3?$basic_ios@DU?$char_traits@D@std@@@std@@8
rdata$r	ENDS
;	COMDAT ??_R0?AV?$basic_ios@DU?$char_traits@D@std@@@std@@@8
_DATA	SEGMENT
??_R0?AV?$basic_ios@DU?$char_traits@D@std@@@std@@@8 DD FLAT:??_7type_info@@6B@ ; std::basic_ios<char,std::char_traits<char> > `RTTI Type Descriptor'
	DD	00H
	DB	'.?AV?$basic_ios@DU?$char_traits@D@std@@@std@@', 00H
_DATA	ENDS
;	COMDAT ??_7ios_base@std@@6B@
CONST	SEGMENT
??_7ios_base@std@@6B@ DD FLAT:??_R4ios_base@std@@6B@	; std::ios_base::`vftable'
	DD	FLAT:??_Eios_base@std@@UAEPAXI@Z
CONST	ENDS
;	COMDAT ??_R4ios_base@std@@6B@
rdata$r	SEGMENT
??_R4ios_base@std@@6B@ DD 00H				; std::ios_base::`RTTI Complete Object Locator'
	DD	00H
	DD	00H
	DD	FLAT:??_R0?AVios_base@std@@@8
	DD	FLAT:??_R3ios_base@std@@8
rdata$r	ENDS
;	COMDAT ??_R3ios_base@std@@8
rdata$r	SEGMENT
??_R3ios_base@std@@8 DD 00H				; std::ios_base::`RTTI Class Hierarchy Descriptor'
	DD	00H
	DD	02H
	DD	FLAT:??_R2ios_base@std@@8
rdata$r	ENDS
;	COMDAT ??_R2ios_base@std@@8
rdata$r	SEGMENT
??_R2ios_base@std@@8 DD FLAT:??_R1A@?0A@EA@ios_base@std@@8 ; std::ios_base::`RTTI Base Class Array'
	DD	FLAT:??_R13?0A@EA@?$_Iosb@H@std@@8
rdata$r	ENDS
;	COMDAT ??_R13?0A@EA@?$_Iosb@H@std@@8
rdata$r	SEGMENT
??_R13?0A@EA@?$_Iosb@H@std@@8 DD FLAT:??_R0?AV?$_Iosb@H@std@@@8 ; std::_Iosb<int>::`RTTI Base Class Descriptor at (4,-1,0,64)'
	DD	00H
	DD	04H
	DD	0ffffffffH
	DD	00H
	DD	040H
	DD	FLAT:??_R3?$_Iosb@H@std@@8
rdata$r	ENDS
;	COMDAT ??_R3?$_Iosb@H@std@@8
rdata$r	SEGMENT
??_R3?$_Iosb@H@std@@8 DD 00H				; std::_Iosb<int>::`RTTI Class Hierarchy Descriptor'
	DD	00H
	DD	01H
	DD	FLAT:??_R2?$_Iosb@H@std@@8
rdata$r	ENDS
;	COMDAT ??_R2?$_Iosb@H@std@@8
rdata$r	SEGMENT
??_R2?$_Iosb@H@std@@8 DD FLAT:??_R1A@?0A@EA@?$_Iosb@H@std@@8 ; std::_Iosb<int>::`RTTI Base Class Array'
rdata$r	ENDS
;	COMDAT ??_R1A@?0A@EA@?$_Iosb@H@std@@8
rdata$r	SEGMENT
??_R1A@?0A@EA@?$_Iosb@H@std@@8 DD FLAT:??_R0?AV?$_Iosb@H@std@@@8 ; std::_Iosb<int>::`RTTI Base Class Descriptor at (0,-1,0,64)'
	DD	00H
	DD	00H
	DD	0ffffffffH
	DD	00H
	DD	040H
	DD	FLAT:??_R3?$_Iosb@H@std@@8
rdata$r	ENDS
;	COMDAT ??_R0?AV?$_Iosb@H@std@@@8
_DATA	SEGMENT
??_R0?AV?$_Iosb@H@std@@@8 DD FLAT:??_7type_info@@6B@	; std::_Iosb<int> `RTTI Type Descriptor'
	DD	00H
	DB	'.?AV?$_Iosb@H@std@@', 00H
_DATA	ENDS
;	COMDAT ??_R1A@?0A@EA@ios_base@std@@8
rdata$r	SEGMENT
??_R1A@?0A@EA@ios_base@std@@8 DD FLAT:??_R0?AVios_base@std@@@8 ; std::ios_base::`RTTI Base Class Descriptor at (0,-1,0,64)'
	DD	01H
	DD	00H
	DD	0ffffffffH
	DD	00H
	DD	040H
	DD	FLAT:??_R3ios_base@std@@8
rdata$r	ENDS
;	COMDAT ??_R0?AVios_base@std@@@8
_DATA	SEGMENT
??_R0?AVios_base@std@@@8 DD FLAT:??_7type_info@@6B@	; std::ios_base `RTTI Type Descriptor'
	DD	00H
	DB	'.?AVios_base@std@@', 00H
_DATA	ENDS
;	COMDAT ??_7FastWriter@Json@@6B@
CONST	SEGMENT
??_7FastWriter@Json@@6B@ DD FLAT:??_R4FastWriter@Json@@6B@ ; Json::FastWriter::`vftable'
	DD	FLAT:??_EFastWriter@Json@@UAEPAXI@Z
	DD	FLAT:?write@FastWriter@Json@@UAE?AV?$basic_string@DU?$char_traits@D@std@@V?$allocator@D@2@@std@@ABVValue@2@@Z
CONST	ENDS
;	COMDAT ??_R4FastWriter@Json@@6B@
rdata$r	SEGMENT
??_R4FastWriter@Json@@6B@ DD 00H			; Json::FastWriter::`RTTI Complete Object Locator'
	DD	00H
	DD	00H
	DD	FLAT:??_R0?AVFastWriter@Json@@@8
	DD	FLAT:??_R3FastWriter@Json@@8
rdata$r	ENDS
;	COMDAT ??_R3FastWriter@Json@@8
rdata$r	SEGMENT
??_R3FastWriter@Json@@8 DD 00H				; Json::FastWriter::`RTTI Class Hierarchy Descriptor'
	DD	00H
	DD	02H
	DD	FLAT:??_R2FastWriter@Json@@8
rdata$r	ENDS
;	COMDAT ??_R2FastWriter@Json@@8
rdata$r	SEGMENT
??_R2FastWriter@Json@@8 DD FLAT:??_R1A@?0A@EA@FastWriter@Json@@8 ; Json::FastWriter::`RTTI Base Class Array'
	DD	FLAT:??_R1A@?0A@EA@Writer@Json@@8
rdata$r	ENDS
;	COMDAT ??_R1A@?0A@EA@FastWriter@Json@@8
rdata$r	SEGMENT
??_R1A@?0A@EA@FastWriter@Json@@8 DD FLAT:??_R0?AVFastWriter@Json@@@8 ; Json::FastWriter::`RTTI Base Class Descriptor at (0,-1,0,64)'
	DD	01H
	DD	00H
	DD	0ffffffffH
	DD	00H
	DD	040H
	DD	FLAT:??_R3FastWriter@Json@@8
rdata$r	ENDS
;	COMDAT ??_R0?AVFastWriter@Json@@@8
_DATA	SEGMENT
??_R0?AVFastWriter@Json@@@8 DD FLAT:??_7type_info@@6B@	; Json::FastWriter `RTTI Type Descriptor'
	DD	00H
	DB	'.?AVFastWriter@Json@@', 00H
_DATA	ENDS
;	COMDAT ?_Stz@?$fpos@H@std@@0HB
CONST	SEGMENT
?_Stz@?$fpos@H@std@@0HB DD 00H				; std::fpos<int>::_Stz
CONST	ENDS
;	COMDAT ??_C@_01KGKMHCOC@e?$AA@
CONST	SEGMENT
??_C@_01KGKMHCOC@e?$AA@ DB 'e', 00H			; `string'
CONST	ENDS
;	COMDAT ??_C@_01DDCIFGEA@E?$AA@
CONST	SEGMENT
??_C@_01DDCIFGEA@E?$AA@ DB 'E', 00H			; `string'
CONST	ENDS
;	COMDAT ??_C@_02BBAHNLBA@?$CFp?$AA@
CONST	SEGMENT
??_C@_02BBAHNLBA@?$CFp?$AA@ DB '%p', 00H		; `string'
CONST	ENDS
;	COMDAT ??_C@_02CLHGNPPK@Lu?$AA@
CONST	SEGMENT
??_C@_02CLHGNPPK@Lu?$AA@ DB 'Lu', 00H			; `string'
CONST	ENDS
;	COMDAT ??_C@_02HIKPPMOK@Ld?$AA@
CONST	SEGMENT
??_C@_02HIKPPMOK@Ld?$AA@ DB 'Ld', 00H			; `string'
CONST	ENDS
;	COMDAT ??_C@_02BDDLJJBK@lu?$AA@
CONST	SEGMENT
??_C@_02BDDLJJBK@lu?$AA@ DB 'lu', 00H			; `string'
CONST	ENDS
;	COMDAT ??_C@_02EAOCLKAK@ld?$AA@
CONST	SEGMENT
??_C@_02EAOCLKAK@ld?$AA@ DB 'ld', 00H			; `string'
CONST	ENDS
;	COMDAT ??_C@_01GPOEFGEJ@?7?$AA@
CONST	SEGMENT
??_C@_01GPOEFGEJ@?7?$AA@ DB 09H, 00H			; `string'
CONST	ENDS
;	COMDAT ??_C@_01CLKCMJKC@?5?$AA@
CONST	SEGMENT
??_C@_01CLKCMJKC@?5?$AA@ DB ' ', 00H			; `string'
CONST	ENDS
;	COMDAT ??_C@_02DHOGEDBE@?5?$FN?$AA@
CONST	SEGMENT
??_C@_02DHOGEDBE@?5?$FN?$AA@ DB ' ]', 00H		; `string'
CONST	ENDS
;	COMDAT ??_C@_02KEGNLNML@?0?5?$AA@
CONST	SEGMENT
??_C@_02KEGNLNML@?0?5?$AA@ DB ', ', 00H			; `string'
CONST	ENDS
;	COMDAT ??_C@_02PFNDMDBO@?$FL?5?$AA@
CONST	SEGMENT
??_C@_02PFNDMDBO@?$FL?5?$AA@ DB '[ ', 00H		; `string'
CONST	ENDS
;	COMDAT ??_C@_02GPECMEKF@?$FL?$FN?$AA@
CONST	SEGMENT
??_C@_02GPECMEKF@?$FL?$FN?$AA@ DB '[]', 00H		; `string'
CONST	ENDS
;	COMDAT ??_C@_03MCPBMLDJ@?5?3?5?$AA@
CONST	SEGMENT
??_C@_03MCPBMLDJ@?5?3?5?$AA@ DB ' : ', 00H		; `string'
CONST	ENDS
;	COMDAT ??_C@_02MCILKGOH@?$HL?$HN?$AA@
CONST	SEGMENT
??_C@_02MCILKGOH@?$HL?$HN?$AA@ DB '{}', 00H		; `string'
CONST	ENDS
;	COMDAT ??_C@_01CELHOKLL@?$HN?$AA@
CONST	SEGMENT
??_C@_01CELHOKLL@?$HN?$AA@ DB '}', 00H			; `string'
CONST	ENDS
;	COMDAT ??_C@_01JLIPDDHJ@?3?$AA@
CONST	SEGMENT
??_C@_01JLIPDDHJ@?3?$AA@ DB ':', 00H			; `string'
CONST	ENDS
;	COMDAT ??_C@_02LMMGGCAJ@?3?5?$AA@
CONST	SEGMENT
??_C@_02LMMGGCAJ@?3?5?$AA@ DB ': ', 00H			; `string'
CONST	ENDS
;	COMDAT ??_C@_01HCONENDN@?$HL?$AA@
CONST	SEGMENT
??_C@_01HCONENDN@?$HL?$AA@ DB '{', 00H			; `string'
CONST	ENDS
;	COMDAT ??_C@_01LBDDMOBJ@?$FN?$AA@
CONST	SEGMENT
??_C@_01LBDDMOBJ@?$FN?$AA@ DB ']', 00H			; `string'
CONST	ENDS
;	COMDAT ??_C@_01IHBHIGKO@?0?$AA@
CONST	SEGMENT
??_C@_01IHBHIGKO@?0?$AA@ DB ',', 00H			; `string'
CONST	ENDS
;	COMDAT ??_C@_01OHGJGJJP@?$FL?$AA@
CONST	SEGMENT
??_C@_01OHGJGJJP@?$FL?$AA@ DB '[', 00H			; `string'
CONST	ENDS
;	COMDAT ??_C@_04MLLLIHIP@null?$AA@
CONST	SEGMENT
??_C@_04MLLLIHIP@null?$AA@ DB 'null', 00H		; `string'
CONST	ENDS
;	COMDAT ??_C@_02DHFAHMIK@?2u?$AA@
CONST	SEGMENT
??_C@_02DHFAHMIK@?2u?$AA@ DB '\u', 00H			; `string'
CONST	ENDS
;	COMDAT ??_C@_02COELENML@?2t?$AA@
CONST	SEGMENT
??_C@_02COELENML@?2t?$AA@ DB '\t', 00H			; `string'
CONST	ENDS
;	COMDAT ??_C@_02HIBBOKEN@?2r?$AA@
CONST	SEGMENT
??_C@_02HIBBOKEN@?2r?$AA@ DB '\r', 00H			; `string'
CONST	ENDS
;	COMDAT ??_C@_02JOGGLHBA@?2n?$AA@
CONST	SEGMENT
??_C@_02JOGGLHBA@?2n?$AA@ DB '\n', 00H			; `string'
CONST	ENDS
;	COMDAT ??_C@_02FGLPDNBI@?2f?$AA@
CONST	SEGMENT
??_C@_02FGLPDNBI@?2f?$AA@ DB '\f', 00H			; `string'
CONST	ENDS
;	COMDAT ??_C@_02DCNDPIBM@?2b?$AA@
CONST	SEGMENT
??_C@_02DCNDPIBM@?2b?$AA@ DB '\b', 00H			; `string'
CONST	ENDS
;	COMDAT ??_C@_02HDBGODGB@?2?2?$AA@
CONST	SEGMENT
??_C@_02HDBGODGB@?2?2?$AA@ DB '\\', 00H			; `string'
CONST	ENDS
;	COMDAT ??_C@_02MCKKLHBJ@?2?$CC?$AA@
CONST	SEGMENT
??_C@_02MCKKLHBJ@?2?$CC?$AA@ DB '\"', 00H		; `string'
CONST	ENDS
;	COMDAT ??_C@_01BJJEKLCA@?$CC?$AA@
CONST	SEGMENT
??_C@_01BJJEKLCA@?$CC?$AA@ DB '"', 00H			; `string'
CONST	ENDS
;	COMDAT ??_C@_07FKPPGBGM@?$CC?2?$AI?$AM?6?$AN?7?$AA@
CONST	SEGMENT
??_C@_07FKPPGBGM@?$CC?2?$AI?$AM?6?$AN?7?$AA@ DB '"\', 08H, 0cH, 0aH, 0dH, 09H
	DB	00H						; `string'
CONST	ENDS
;	COMDAT ??_C@_06ECBCCLMB@?$CF?$CD?416g?$AA@
CONST	SEGMENT
??_C@_06ECBCCLMB@?$CF?$CD?416g?$AA@ DB '%#.16g', 00H	; `string'
__bad_alloc_Message DD FLAT:??_C@_0P@GHFPNOJB@bad?5allocation?$AA@
; Function compile flags: /Ogtpy
; File c:\program files\microsoft visual studio 8\vc\include\xlocale
;	COMDAT ??$_Maklocstr@D@std@@YAPADPBDPADABU_Cvtvec@@@Z
_TEXT	SEGMENT
??$_Maklocstr@D@std@@YAPADPBDPADABU_Cvtvec@@@Z PROC	; std::_Maklocstr<char>, COMDAT
; __Ptr$ = eax

; 604  : 	{	// convert C string to _Elem sequence using _Cvtvec

	push	esi
	push	edi
	mov	edi, eax

; 605  : 	size_t _Count = ::strlen(_Ptr) + 1;

	lea	edx, DWORD PTR [eax+1]
$LL8@Maklocstr:
	mov	cl, BYTE PTR [eax]
	add	eax, 1
	test	cl, cl
	jne	SHORT $LL8@Maklocstr
	sub	eax, edx
	lea	esi, DWORD PTR [eax+1]

; 606  : 	_Elem *_Ptrdest = _NEW_CRT _Elem[_Count];

	push	esi
	call	??_U@YAPAXI@Z				; operator new[]
	add	esp, 4

; 607  : 
; 608  : #pragma warning(push)
; 609  : #pragma warning(disable: 6011)
; 610  : 	/* prefast noise */
; 611  : 	for (_Elem *_Ptrnext = _Ptrdest; 0 < _Count; --_Count, ++_Ptrnext, ++_Ptr)

	test	esi, esi
	mov	ecx, eax
	jbe	SHORT $LN1@Maklocstr
$LL3@Maklocstr:

; 612  : 		*_Ptrnext = (_Elem)(unsigned char)*_Ptr;

	mov	dl, BYTE PTR [edi]
	mov	BYTE PTR [ecx], dl
	sub	esi, 1
	add	ecx, 1
	add	edi, 1
	test	esi, esi
	ja	SHORT $LL3@Maklocstr
$LN1@Maklocstr:
	pop	edi
	pop	esi

; 613  : 	return (_Ptrdest);
; 614  : #pragma warning(pop)
; 615  : 	}

	ret	0
??$_Maklocstr@D@std@@YAPADPBDPADABU_Cvtvec@@@Z ENDP	; std::_Maklocstr<char>
; Function compile flags: /Ogtpy
; File c:\program files\microsoft visual studio 8\vc\include\iomanip
_TEXT	ENDS
;	COMDAT ??0?$_Fillobj@D@std@@QAE@D@Z
_TEXT	SEGMENT
??0?$_Fillobj@D@std@@QAE@D@Z PROC			; std::_Fillobj<char>::_Fillobj<char>, COMDAT
; _this$ = eax

; 21   : 		{	// construct from fill character

	mov	BYTE PTR [eax], 48			; 00000030H

; 22   : 		}

	ret	0
??0?$_Fillobj@D@std@@QAE@D@Z ENDP			; std::_Fillobj<char>::_Fillobj<char>
; Function compile flags: /Ogtpy
; File c:\program files\microsoft visual studio 8\vc\include\streambuf
_TEXT	ENDS
;	COMDAT ?sputn@?$basic_streambuf@DU?$char_traits@D@std@@@std@@QAEHPBDH@Z
_TEXT	SEGMENT
?sputn@?$basic_streambuf@DU?$char_traits@D@std@@@std@@QAEHPBDH@Z PROC ; std::basic_streambuf<char,std::char_traits<char> >::sputn, COMDAT
; _this$ = ecx
; __Count$ = edx

; 169  : 		return (xsputn(_Ptr, _Count));

	mov	eax, DWORD PTR [ecx]
	mov	eax, DWORD PTR [eax+32]
	push	edx
	push	OFFSET ??_C@_02DHFAHMIK@?2u?$AA@
	call	eax

; 170  : 		}

	ret	0
?sputn@?$basic_streambuf@DU?$char_traits@D@std@@@std@@QAEHPBDH@Z ENDP ; std::basic_streambuf<char,std::char_traits<char> >::sputn
; Function compile flags: /Ogtpy
; File c:\program files\microsoft visual studio 8\vc\include\ios
_TEXT	ENDS
;	COMDAT ?fill@?$basic_ios@DU?$char_traits@D@std@@@std@@QAEDD@Z
_TEXT	SEGMENT
?fill@?$basic_ios@DU?$char_traits@D@std@@@std@@QAEDD@Z PROC ; std::basic_ios<char,std::char_traits<char> >::fill, COMDAT
; _this$ = ecx
; __Newfill$ = edx

; 111  : 		_Elem _Oldfill = _Fillch;

	mov	al, BYTE PTR [ecx+48]

; 112  : 		_Fillch = _Newfill;

	mov	BYTE PTR [ecx+48], dl

; 113  : 		return (_Oldfill);
; 114  : 		}

	ret	0
?fill@?$basic_ios@DU?$char_traits@D@std@@@std@@QAEDD@Z ENDP ; std::basic_ios<char,std::char_traits<char> >::fill
; Function compile flags: /Ogtpy
; File c:\program files\microsoft visual studio 8\vc\include\xlocale
_TEXT	ENDS
;	COMDAT ??$_Maklocchr@D@std@@YADDPADABU_Cvtvec@@@Z
_TEXT	SEGMENT
??$_Maklocchr@D@std@@YADDPADABU_Cvtvec@@@Z PROC		; std::_Maklocchr<char>, COMDAT
; __Byte$ = eax

; 583  : 	return ((_Elem)(unsigned char)_Byte);
; 584  : 	}

	ret	0
??$_Maklocchr@D@std@@YADDPADABU_Cvtvec@@@Z ENDP		; std::_Maklocchr<char>
; Function compile flags: /Ogtpy
; File c:\program files\microsoft visual studio 8\vc\include\iomanip
_TEXT	ENDS
;	COMDAT ??$?6DU?$char_traits@D@std@@H@std@@YAAAV?$basic_ostream@DU?$char_traits@D@std@@@0@AAV10@ABU?$_Smanip@H@0@@Z
_TEXT	SEGMENT
??$?6DU?$char_traits@D@std@@H@std@@YAAAV?$basic_ostream@DU?$char_traits@D@std@@@0@AAV10@ABU?$_Smanip@H@0@@Z PROC ; std::operator<<<char,std::char_traits<char>,int>, COMDAT
; __Ostr$ = esi
; __Manip$ = ecx

; 83   : 	(*_Manip._Pfun)(_Ostr, _Manip._Manarg);

	test	esi, esi
	jne	SHORT $LN3@operator
	mov	edx, DWORD PTR [ecx+4]
	xor	eax, eax
	push	edx
	push	eax
	mov	eax, DWORD PTR [ecx]
	call	eax
	add	esp, 8

; 84   : 	return (_Ostr);

	mov	eax, esi

; 85   : 	}

	ret	0
$LN3@operator:

; 83   : 	(*_Manip._Pfun)(_Ostr, _Manip._Manarg);

	mov	eax, DWORD PTR [esi]
	mov	eax, DWORD PTR [eax+4]
	mov	edx, DWORD PTR [ecx+4]
	add	eax, esi
	push	edx
	push	eax
	mov	eax, DWORD PTR [ecx]
	call	eax
	add	esp, 8

; 84   : 	return (_Ostr);

	mov	eax, esi

; 85   : 	}

	ret	0
??$?6DU?$char_traits@D@std@@H@std@@YAAAV?$basic_ostream@DU?$char_traits@D@std@@@0@AAV10@ABU?$_Smanip@H@0@@Z ENDP ; std::operator<<<char,std::char_traits<char>,int>
; Function compile flags: /Ogtpy
_TEXT	ENDS
;	COMDAT ??$?6DU?$char_traits@D@std@@@std@@YAAAV?$basic_ostream@DU?$char_traits@D@std@@@0@AAV10@ABU?$_Fillobj@D@0@@Z
_TEXT	SEGMENT
__Manip$ = 8						; size = 4
??$?6DU?$char_traits@D@std@@@std@@YAAAV?$basic_ostream@DU?$char_traits@D@std@@@0@AAV10@ABU?$_Fillobj@D@0@@Z PROC ; std::operator<<<char,std::char_traits<char> >, COMDAT
; __Ostr$ = eax

; 50   : 	_Ostr.fill(_Manip._Fill);

	mov	ecx, DWORD PTR [eax]
	mov	edx, DWORD PTR [ecx+4]
	mov	ecx, DWORD PTR __Manip$[esp-4]
	mov	cl, BYTE PTR [ecx]
	mov	BYTE PTR [edx+eax+48], cl

; 51   : 	return (_Ostr);
; 52   : 	}

	ret	0
??$?6DU?$char_traits@D@std@@@std@@YAAAV?$basic_ostream@DU?$char_traits@D@std@@@0@AAV10@ABU?$_Fillobj@D@0@@Z ENDP ; std::operator<<<char,std::char_traits<char> >
; Function compile flags: /Ogtpy
_TEXT	ENDS
;	COMDAT ??$setfill@D@std@@YA?AU?$_Fillobj@D@0@D@Z
_TEXT	SEGMENT
??$setfill@D@std@@YA?AU?$_Fillobj@D@0@D@Z PROC		; std::setfill<char>, COMDAT
; ___$ReturnUdt$ = eax

; 31   : 	return (_Fillobj<_Elem>(_Ch));

	mov	BYTE PTR [eax], 48			; 00000030H

; 32   : 	}

	ret	0
??$setfill@D@std@@YA?AU?$_Fillobj@D@0@D@Z ENDP		; std::setfill<char>
; Function compile flags: /Ogtpy
; File c:\program files\microsoft visual studio 8\vc\include\xlocnum
_TEXT	ENDS
;	COMDAT ?_Tidy@?$numpunct@D@std@@AAEXXZ
_TEXT	SEGMENT
?_Tidy@?$numpunct@D@std@@AAEXXZ PROC			; std::numpunct<char>::_Tidy, COMDAT
; _this$ = esi

; 172  : 		_DELETE_CRT_VEC((void *)_Grouping);

	mov	eax, DWORD PTR [esi+8]
	push	eax
	call	??_V@YAXPAX@Z				; operator delete[]

; 173  : 		_DELETE_CRT_VEC((void *)_Falsename);

	mov	ecx, DWORD PTR [esi+16]
	push	ecx
	call	??_V@YAXPAX@Z				; operator delete[]

; 174  : 		_DELETE_CRT_VEC((void *)_Truename);

	mov	edx, DWORD PTR [esi+20]
	push	edx
	call	??_V@YAXPAX@Z				; operator delete[]
	add	esp, 12					; 0000000cH

; 175  : 		}

	ret	0
?_Tidy@?$numpunct@D@std@@AAEXXZ ENDP			; std::numpunct<char>::_Tidy
; Function compile flags: /Ogtpy
_TEXT	ENDS
;	COMDAT ?thousands_sep@?$numpunct@D@std@@QBEDXZ
_TEXT	SEGMENT
?thousands_sep@?$numpunct@D@std@@QBEDXZ PROC		; std::numpunct<char>::thousands_sep, COMDAT
; _this$ = ecx

; 65   : 		return (do_thousands_sep());

	mov	eax, DWORD PTR [ecx]
	mov	edx, DWORD PTR [eax+8]
	jmp	edx
?thousands_sep@?$numpunct@D@std@@QBEDXZ ENDP		; std::numpunct<char>::thousands_sep
; Function compile flags: /Ogtpy
_TEXT	ENDS
;	COMDAT ?decimal_point@?$numpunct@D@std@@QBEDXZ
_TEXT	SEGMENT
?decimal_point@?$numpunct@D@std@@QBEDXZ PROC		; std::numpunct<char>::decimal_point, COMDAT
; _this$ = ecx

; 60   : 		return (do_decimal_point());

	mov	eax, DWORD PTR [ecx]
	mov	edx, DWORD PTR [eax+4]
	jmp	edx
?decimal_point@?$numpunct@D@std@@QBEDXZ ENDP		; std::numpunct<char>::decimal_point
; Function compile flags: /Ogtpy
; File c:\program files\microsoft visual studio 8\vc\include\xutility
_TEXT	ENDS
;	COMDAT ??E?$ostreambuf_iterator@DU?$char_traits@D@std@@@std@@QAEAAV01@XZ
_TEXT	SEGMENT
??E?$ostreambuf_iterator@DU?$char_traits@D@std@@@std@@QAEAAV01@XZ PROC ; std::ostreambuf_iterator<char,std::char_traits<char> >::operator++, COMDAT
; _this$ = eax

; 2200 : 		return (*this);
; 2201 : 		}

	ret	0
??E?$ostreambuf_iterator@DU?$char_traits@D@std@@@std@@QAEAAV01@XZ ENDP ; std::ostreambuf_iterator<char,std::char_traits<char> >::operator++
; Function compile flags: /Ogtpy
_TEXT	ENDS
;	COMDAT ??D?$ostreambuf_iterator@DU?$char_traits@D@std@@@std@@QAEAAV01@XZ
_TEXT	SEGMENT
??D?$ostreambuf_iterator@DU?$char_traits@D@std@@@std@@QAEAAV01@XZ PROC ; std::ostreambuf_iterator<char,std::char_traits<char> >::operator*, COMDAT
; _this$ = eax

; 2195 : 		return (*this);
; 2196 : 		}

	ret	0
??D?$ostreambuf_iterator@DU?$char_traits@D@std@@@std@@QAEAAV01@XZ ENDP ; std::ostreambuf_iterator<char,std::char_traits<char> >::operator*
; Function compile flags: /Ogtpy
; File c:\program files\microsoft visual studio 8\vc\include\xlocnum
_TEXT	ENDS
;	COMDAT ?do_thousands_sep@?$numpunct@D@std@@MBEDXZ
_TEXT	SEGMENT
?do_thousands_sep@?$numpunct@D@std@@MBEDXZ PROC		; std::numpunct<char>::do_thousands_sep, COMDAT
; _this$ = ecx

; 151  : 		return (_Kseparator);

	mov	al, BYTE PTR [ecx+13]

; 152  : 		}

	ret	0
?do_thousands_sep@?$numpunct@D@std@@MBEDXZ ENDP		; std::numpunct<char>::do_thousands_sep
; Function compile flags: /Ogtpy
_TEXT	ENDS
;	COMDAT ?do_decimal_point@?$numpunct@D@std@@MBEDXZ
_TEXT	SEGMENT
?do_decimal_point@?$numpunct@D@std@@MBEDXZ PROC		; std::numpunct<char>::do_decimal_point, COMDAT
; _this$ = ecx

; 146  : 		return (_Dp);

	mov	al, BYTE PTR [ecx+12]

; 147  : 		}

	ret	0
?do_decimal_point@?$numpunct@D@std@@MBEDXZ ENDP		; std::numpunct<char>::do_decimal_point
; Function compile flags: /Ogtpy
_TEXT	ENDS
;	COMDAT ?_Ifmt@?$num_put@DV?$ostreambuf_iterator@DU?$char_traits@D@std@@@std@@@std@@ABAPADPADPBDH@Z
_TEXT	SEGMENT
?_Ifmt@?$num_put@DV?$ostreambuf_iterator@DU?$char_traits@D@std@@@std@@@std@@ABAPADPADPBDH@Z PROC ; std::num_put<char,std::ostreambuf_iterator<char,std::char_traits<char> > >::_Ifmt, COMDAT
; __Fmt$ = eax
; __Spec$ = edi
; __Flags$ = edx

; 1237 : 		char *_Ptr = _Fmt;
; 1238 : 		*_Ptr++ = '%';
; 1239 : 
; 1240 : 		if (_Flags & ios_base::showpos)

	test	dl, 32					; 00000020H
	mov	BYTE PTR [eax], 37			; 00000025H
	lea	ecx, DWORD PTR [eax+1]
	je	SHORT $LN4@Ifmt

; 1241 : 			*_Ptr++ = '+';

	mov	BYTE PTR [ecx], 43			; 0000002bH
	add	ecx, 1
$LN4@Ifmt:

; 1242 : 		if (_Flags & ios_base::showbase)

	test	dl, 8
	je	SHORT $LN3@Ifmt

; 1243 : 			*_Ptr++ = '#';

	mov	BYTE PTR [ecx], 35			; 00000023H
	add	ecx, 1
$LN3@Ifmt:
	push	ebx

; 1244 : 		if (_Spec[0] != 'L')

	mov	bl, BYTE PTR [edi]
	cmp	bl, 76					; 0000004cH
	push	esi
	je	SHORT $LN2@Ifmt

; 1245 : 			*_Ptr++ = _Spec[0];	// qualifier

	mov	BYTE PTR [ecx], bl

; 1246 : 		else

	jmp	SHORT $LN11@Ifmt
$LN2@Ifmt:

; 1247 : 			{	/* change L to I64 */
; 1248 : 			*_Ptr++ = 'I';

	mov	BYTE PTR [ecx], 73			; 00000049H
	add	ecx, 1

; 1249 : 			*_Ptr++ = '6';

	mov	BYTE PTR [ecx], 54			; 00000036H
	add	ecx, 1

; 1250 : 			*_Ptr++ = '4';

	mov	BYTE PTR [ecx], 52			; 00000034H
$LN11@Ifmt:

; 1251 : 			}
; 1252 : 
; 1253 : 		ios_base::fmtflags _Basefield = _Flags & ios_base::basefield;

	mov	esi, edx
	and	esi, 3584				; 00000e00H
	add	ecx, 1

; 1254 : 		*_Ptr++ = _Basefield == ios_base::oct ? 'o'
; 1255 : 			: _Basefield != ios_base::hex ? _Spec[1]	// 'd' or 'u'
; 1256 : 			: _Flags & ios_base::uppercase ? 'X' : 'x';

	cmp	esi, 1024				; 00000400H
	jne	SHORT $LN9@Ifmt
	mov	dl, 111					; 0000006fH
	pop	esi
	mov	BYTE PTR [ecx], dl

; 1257 : 		*_Ptr = '\0';

	mov	BYTE PTR [ecx+1], 0
	pop	ebx

; 1258 : 		return (_Fmt);
; 1259 : 		}

	ret	0
$LN9@Ifmt:

; 1254 : 		*_Ptr++ = _Basefield == ios_base::oct ? 'o'
; 1255 : 			: _Basefield != ios_base::hex ? _Spec[1]	// 'd' or 'u'
; 1256 : 			: _Flags & ios_base::uppercase ? 'X' : 'x';

	cmp	esi, 2048				; 00000800H
	je	SHORT $LN7@Ifmt
	mov	dl, BYTE PTR [edi+1]
	pop	esi
	mov	BYTE PTR [ecx], dl

; 1257 : 		*_Ptr = '\0';

	mov	BYTE PTR [ecx+1], 0
	pop	ebx

; 1258 : 		return (_Fmt);
; 1259 : 		}

	ret	0
$LN7@Ifmt:

; 1254 : 		*_Ptr++ = _Basefield == ios_base::oct ? 'o'
; 1255 : 			: _Basefield != ios_base::hex ? _Spec[1]	// 'd' or 'u'
; 1256 : 			: _Flags & ios_base::uppercase ? 'X' : 'x';

	add	dl, dl
	add	dl, dl
	add	dl, dl
	not	dl
	and	dl, 32					; 00000020H
	or	dl, 88					; 00000058H
	pop	esi
	mov	BYTE PTR [ecx], dl

; 1257 : 		*_Ptr = '\0';

	mov	BYTE PTR [ecx+1], 0
	pop	ebx

; 1258 : 		return (_Fmt);
; 1259 : 		}

	ret	0
?_Ifmt@?$num_put@DV?$ostreambuf_iterator@DU?$char_traits@D@std@@@std@@@std@@ABAPADPADPBDH@Z ENDP ; std::num_put<char,std::ostreambuf_iterator<char,std::char_traits<char> > >::_Ifmt
; Function compile flags: /Ogtpy
_TEXT	ENDS
;	COMDAT ?_Ffmt@?$num_put@DV?$ostreambuf_iterator@DU?$char_traits@D@std@@@std@@@std@@ABAPADPADDH@Z
_TEXT	SEGMENT
?_Ffmt@?$num_put@DV?$ostreambuf_iterator@DU?$char_traits@D@std@@@std@@@std@@ABAPADPADDH@Z PROC ; std::num_put<char,std::ostreambuf_iterator<char,std::char_traits<char> > >::_Ffmt, COMDAT
; __Fmt$ = esi
; __Spec$ = eax
; __Flags$ = edx

; 1095 : 		char *_Ptr = _Fmt;
; 1096 : 		*_Ptr++ = '%';
; 1097 : 
; 1098 : 		if (_Flags & ios_base::showpos)

	test	dl, 32					; 00000020H
	mov	BYTE PTR [esi], 37			; 00000025H
	lea	ecx, DWORD PTR [esi+1]
	je	SHORT $LN3@Ffmt

; 1099 : 			*_Ptr++ = '+';

	mov	BYTE PTR [ecx], 43			; 0000002bH
	add	ecx, 1
$LN3@Ffmt:

; 1100 : 		if (_Flags & ios_base::showpoint)

	test	dl, 16					; 00000010H
	je	SHORT $LN2@Ffmt

; 1101 : 			*_Ptr++ = '#';

	mov	BYTE PTR [ecx], 35			; 00000023H
	add	ecx, 1
$LN2@Ffmt:

; 1102 : 		*_Ptr++ = '.';

	mov	BYTE PTR [ecx], 46			; 0000002eH
	add	ecx, 1

; 1103 : 		*_Ptr++ = '*';	// for precision argument

	mov	BYTE PTR [ecx], 42			; 0000002aH
	add	ecx, 1

; 1104 : 		if (_Spec != '\0')

	test	al, al
	je	SHORT $LN1@Ffmt

; 1105 : 			*_Ptr++ = _Spec;	// 'L' qualifier for long double only

	mov	BYTE PTR [ecx], al
	add	ecx, 1
$LN1@Ffmt:

; 1106 : 
; 1107 : 		ios_base::fmtflags _Ffl = _Flags & ios_base::floatfield;

	and	edx, 12288				; 00003000H

; 1108 : 		*_Ptr++ = _Ffl == ios_base::fixed ? 'f'
; 1109 : 			: _Ffl == ios_base::scientific ? 'e' : 'g';	// specifier

	cmp	edx, 8192				; 00002000H
	jne	SHORT $LN6@Ffmt
	mov	dl, 102					; 00000066H
	mov	BYTE PTR [ecx], dl

; 1110 : 		*_Ptr = '\0';

	mov	BYTE PTR [ecx+1], 0

; 1111 : 		return (_Fmt);

	mov	eax, esi

; 1112 : 		}

	ret	0
$LN6@Ffmt:

; 1108 : 		*_Ptr++ = _Ffl == ios_base::fixed ? 'f'
; 1109 : 			: _Ffl == ios_base::scientific ? 'e' : 'g';	// specifier

	cmp	edx, 4096				; 00001000H
	setne	dl

; 1111 : 		return (_Fmt);

	mov	eax, esi
	lea	edx, DWORD PTR [edx+edx+101]
	mov	BYTE PTR [ecx], dl
	mov	BYTE PTR [ecx+1], 0

; 1112 : 		}

	ret	0
?_Ffmt@?$num_put@DV?$ostreambuf_iterator@DU?$char_traits@D@std@@@std@@@std@@ABAPADPADDH@Z ENDP ; std::num_put<char,std::ostreambuf_iterator<char,std::char_traits<char> > >::_Ffmt
; Function compile flags: /Ogtpy
; File c:\program files\microsoft visual studio 8\vc\include\sstream
_TEXT	ENDS
;	COMDAT ?_Getstate@?$basic_stringbuf@DU?$char_traits@D@std@@V?$allocator@D@2@@std@@AAEHH@Z
_TEXT	SEGMENT
?_Getstate@?$basic_stringbuf@DU?$char_traits@D@std@@V?$allocator@D@2@@std@@AAEHH@Z PROC ; std::basic_stringbuf<char,std::char_traits<char>,std::allocator<char> >::_Getstate, COMDAT

; 315  : 		_Strstate _State = (_Strstate)0;
; 316  : 		if (!(_Mode & ios_base::in))
; 317  : 			_State |= _Noread;
; 318  : 		if (!(_Mode & ios_base::out))
; 319  : 			_State |= _Constant;
; 320  : 		if (_Mode & ios_base::app)
; 321  : 			_State |= _Append;
; 322  : 		if (_Mode & ios_base::ate)
; 323  : 			_State |= _Atend;
; 324  : 		return (_State);

	mov	eax, 4

; 325  : 		}

	ret	0
?_Getstate@?$basic_stringbuf@DU?$char_traits@D@std@@V?$allocator@D@2@@std@@AAEHH@Z ENDP ; std::basic_stringbuf<char,std::char_traits<char>,std::allocator<char> >::_Getstate
; Function compile flags: /Ogtpy
; File c:\program files\microsoft visual studio 8\vc\include\iosfwd
_TEXT	ENDS
;	COMDAT ??B?$fpos@H@std@@QBEJXZ
_TEXT	SEGMENT
??B?$fpos@H@std@@QBEJXZ PROC				; std::fpos<int>::operator long, COMDAT
; _this$ = ecx

; 72   : 		return (_Myoff + _FPOSOFF(_Fpos));

	mov	eax, DWORD PTR [ecx+8]
	add	eax, DWORD PTR [ecx]

; 73   : 		}

	ret	0
??B?$fpos@H@std@@QBEJXZ ENDP				; std::fpos<int>::operator long
; Function compile flags: /Ogtpy
_TEXT	ENDS
;	COMDAT ??0?$fpos@H@std@@QAE@J@Z
_TEXT	SEGMENT
??0?$fpos@H@std@@QAE@J@Z PROC				; std::fpos<int>::fpos<int>, COMDAT
; _this$ = eax
; __Off$ = ecx

; 47   : 		{	// construct with stream offset

	mov	DWORD PTR [eax], ecx
	xor	ecx, ecx
	mov	DWORD PTR [eax+8], ecx
	mov	DWORD PTR [eax+12], ecx
	mov	DWORD PTR [eax+16], ecx

; 48   : 		}

	ret	0
??0?$fpos@H@std@@QAE@J@Z ENDP				; std::fpos<int>::fpos<int>
; Function compile flags: /Ogtpy
; File c:\program files\microsoft visual studio 8\vc\include\xutility
_TEXT	ENDS
;	COMDAT ?failed@?$ostreambuf_iterator@DU?$char_traits@D@std@@@std@@QBE_NXZ
_TEXT	SEGMENT
?failed@?$ostreambuf_iterator@DU?$char_traits@D@std@@@std@@QBE_NXZ PROC ; std::ostreambuf_iterator<char,std::char_traits<char> >::failed, COMDAT
; _this$ = eax

; 2210 : 		return (_Failed);

	mov	al, BYTE PTR [eax+4]

; 2211 : 		}

	ret	0
?failed@?$ostreambuf_iterator@DU?$char_traits@D@std@@@std@@QBE_NXZ ENDP ; std::ostreambuf_iterator<char,std::char_traits<char> >::failed
; Function compile flags: /Ogtpy
; File c:\program files\microsoft visual studio 8\vc\include\xlocnum
_TEXT	ENDS
;	COMDAT ?put@?$num_put@DV?$ostreambuf_iterator@DU?$char_traits@D@std@@@std@@@std@@QBE?AV?$ostreambuf_iterator@DU?$char_traits@D@std@@@2@V32@AAVios_base@2@DJ@Z
_TEXT	SEGMENT
__Dest$ = 8						; size = 12
__Iosbase$ = 20						; size = 4
__Fill$ = 24						; size = 1
?put@?$num_put@DV?$ostreambuf_iterator@DU?$char_traits@D@std@@@std@@@std@@QBE?AV?$ostreambuf_iterator@DU?$char_traits@D@std@@@2@V32@AAVios_base@2@DJ@Z PROC ; std::num_put<char,std::ostreambuf_iterator<char,std::char_traits<char> > >::put, COMDAT
; _this$ = ecx
; ___$ReturnUdt$ = esi
; __Val$ = eax

; 886  : 		return (do_put(_Dest, _Iosbase, _Fill, _Val));

	mov	edx, DWORD PTR [ecx]
	mov	edx, DWORD PTR [edx+28]
	push	edi
	mov	edi, DWORD PTR __Dest$[esp]
	push	eax
	mov	eax, DWORD PTR __Fill$[esp+4]
	push	eax
	mov	eax, DWORD PTR __Iosbase$[esp+8]
	push	eax
	sub	esp, 12					; 0000000cH
	mov	eax, esp
	mov	DWORD PTR [eax], edi
	mov	edi, DWORD PTR __Dest$[esp+28]
	mov	DWORD PTR [eax+4], edi
	mov	edi, DWORD PTR __Dest$[esp+32]
	push	esi
	mov	DWORD PTR [eax+8], edi
	call	edx
	mov	eax, esi

; 887  : 		}

	pop	edi
	ret	20					; 00000014H
?put@?$num_put@DV?$ostreambuf_iterator@DU?$char_traits@D@std@@@std@@@std@@QBE?AV?$ostreambuf_iterator@DU?$char_traits@D@std@@@2@V32@AAVios_base@2@DJ@Z ENDP ; std::num_put<char,std::ostreambuf_iterator<char,std::char_traits<char> > >::put
; Function compile flags: /Ogtpy
; File c:\program files\microsoft visual studio 8\vc\include\ostream
_TEXT	ENDS
;	COMDAT ??Bsentry@?$basic_ostream@DU?$char_traits@D@std@@@std@@QBE_NXZ
_TEXT	SEGMENT
??Bsentry@?$basic_ostream@DU?$char_traits@D@std@@@std@@QBE_NXZ PROC ; std::basic_ostream<char,std::char_traits<char> >::sentry::operator bool, COMDAT
; _this$ = eax

; 114  : 			return (_Ok);

	mov	al, BYTE PTR [eax+4]

; 115  : 			}

	ret	0
??Bsentry@?$basic_ostream@DU?$char_traits@D@std@@@std@@QBE_NXZ ENDP ; std::basic_ostream<char,std::char_traits<char> >::sentry::operator bool
; Function compile flags: /Ogtpy
; File c:\program files\microsoft visual studio 8\vc\include\vector
_TEXT	ENDS
;	COMDAT ??E?$_Vector_const_iterator@V?$basic_string@DU?$char_traits@D@std@@V?$allocator@D@2@@std@@V?$allocator@V?$basic_string@DU?$char_traits@D@std@@V?$allocator@D@2@@std@@@2@@std@@QAEAAV01@XZ
_TEXT	SEGMENT
??E?$_Vector_const_iterator@V?$basic_string@DU?$char_traits@D@std@@V?$allocator@D@2@@std@@V?$allocator@V?$basic_string@DU?$char_traits@D@std@@V?$allocator@D@2@@std@@@2@@std@@QAEAAV01@XZ PROC ; std::_Vector_const_iterator<std::basic_string<char,std::char_traits<char>,std::allocator<char> >,std::allocator<std::basic_string<char,std::char_traits<char>,std::allocator<char> > > >::operator++, COMDAT
; _this$ = esi

; 117  : 		_SCL_SECURE_VALIDATE(this->_Mycont != NULL);

	cmp	DWORD PTR [esi], 0
	jne	SHORT $LN2@operator@2
	call	__invalid_parameter_noinfo
$LN2@operator@2:

; 118  : 		_SCL_SECURE_VALIDATE_RANGE(_Myptr < ((_Myvec *)(this->_Mycont))->_Mylast);

	mov	eax, DWORD PTR [esi]
	mov	ecx, DWORD PTR [esi+4]
	cmp	ecx, DWORD PTR [eax+8]
	jb	SHORT $LN5@operator@2
	call	__invalid_parameter_noinfo
$LN5@operator@2:

; 119  : 		++_Myptr;

	add	DWORD PTR [esi+4], 28			; 0000001cH

; 120  : 		return (*this);

	mov	eax, esi

; 121  : 		}

	ret	0
??E?$_Vector_const_iterator@V?$basic_string@DU?$char_traits@D@std@@V?$allocator@D@2@@std@@V?$allocator@V?$basic_string@DU?$char_traits@D@std@@V?$allocator@D@2@@std@@@2@@std@@QAEAAV01@XZ ENDP ; std::_Vector_const_iterator<std::basic_string<char,std::char_traits<char>,std::allocator<char> >,std::allocator<std::basic_string<char,std::char_traits<char>,std::allocator<char> > > >::operator++
; Function compile flags: /Ogtpy
_TEXT	ENDS
;	COMDAT ??D?$_Vector_const_iterator@V?$basic_string@DU?$char_traits@D@std@@V?$allocator@D@2@@std@@V?$allocator@V?$basic_string@DU?$char_traits@D@std@@V?$allocator@D@2@@std@@@2@@std@@QBEABV?$basic_string@DU?$char_traits@D@std@@V?$allocator@D@2@@1@XZ
_TEXT	SEGMENT
??D?$_Vector_const_iterator@V?$basic_string@DU?$char_traits@D@std@@V?$allocator@D@2@@std@@V?$allocator@V?$basic_string@DU?$char_traits@D@std@@V?$allocator@D@2@@std@@@2@@std@@QBEABV?$basic_string@DU?$char_traits@D@std@@V?$allocator@D@2@@1@XZ PROC ; std::_Vector_const_iterator<std::basic_string<char,std::char_traits<char>,std::allocator<char> >,std::allocator<std::basic_string<char,std::char_traits<char>,std::allocator<char> > > >::operator*, COMDAT
; _this$ = esi

; 93   : 
; 94   :  #if _HAS_ITERATOR_DEBUGGING
; 95   : 		if (this->_Mycont == 0
; 96   : 			|| _Myptr < ((_Myvec *)this->_Mycont)->_Myfirst
; 97   : 			|| ((_Myvec *)this->_Mycont)->_Mylast <= _Myptr)
; 98   : 			{
; 99   : 			_DEBUG_ERROR("vector iterator not dereferencable");
; 100  : 			_SCL_SECURE_OUT_OF_RANGE;
; 101  : 			}
; 102  :  #else
; 103  :  		_SCL_SECURE_VALIDATE(this->_Mycont != NULL);

	cmp	DWORD PTR [esi], 0
	jne	SHORT $LN2@operator@3
	call	__invalid_parameter_noinfo
$LN2@operator@3:

; 104  : 		_SCL_SECURE_VALIDATE_RANGE(_Myptr < ((_Myvec *)(this->_Mycont))->_Mylast);

	mov	eax, DWORD PTR [esi]
	mov	ecx, DWORD PTR [esi+4]
	cmp	ecx, DWORD PTR [eax+8]
	jb	SHORT $LN5@operator@3
	call	__invalid_parameter_noinfo

; 105  :  #endif /* _HAS_ITERATOR_DEBUGGING */
; 106  : 
; 107  : 		return (*_Myptr);

	mov	eax, DWORD PTR [esi+4]

; 108  : 		}

	ret	0
$LN5@operator@3:

; 105  :  #endif /* _HAS_ITERATOR_DEBUGGING */
; 106  : 
; 107  : 		return (*_Myptr);

	mov	eax, ecx

; 108  : 		}

	ret	0
??D?$_Vector_const_iterator@V?$basic_string@DU?$char_traits@D@std@@V?$allocator@D@2@@std@@V?$allocator@V?$basic_string@DU?$char_traits@D@std@@V?$allocator@D@2@@std@@@2@@std@@QBEABV?$basic_string@DU?$char_traits@D@std@@V?$allocator@D@2@@1@XZ ENDP ; std::_Vector_const_iterator<std::basic_string<char,std::char_traits<char>,std::allocator<char> >,std::allocator<std::basic_string<char,std::char_traits<char>,std::allocator<char> > > >::operator*
; Function compile flags: /Ogtpy
; File c:\program files\microsoft visual studio 8\vc\include\streambuf
_TEXT	ENDS
;	COMDAT ?_Pnavail@?$basic_streambuf@DU?$char_traits@D@std@@@std@@IBEHXZ
_TEXT	SEGMENT
?_Pnavail@?$basic_streambuf@DU?$char_traits@D@std@@@std@@IBEHXZ PROC ; std::basic_streambuf<char,std::char_traits<char> >::_Pnavail, COMDAT
; _this$ = eax

; 278  : 		return (*_IPnext != 0 ? *_IPcount : 0);

	mov	ecx, DWORD PTR [eax+36]
	cmp	DWORD PTR [ecx], 0
	je	SHORT $LN3@Pnavail
	mov	edx, DWORD PTR [eax+52]
	mov	eax, DWORD PTR [edx]

; 279  : 		}

	ret	0
$LN3@Pnavail:

; 278  : 		return (*_IPnext != 0 ? *_IPcount : 0);

	xor	eax, eax

; 279  : 		}

	ret	0
?_Pnavail@?$basic_streambuf@DU?$char_traits@D@std@@@std@@IBEHXZ ENDP ; std::basic_streambuf<char,std::char_traits<char> >::_Pnavail
; Function compile flags: /Ogtpy
_TEXT	ENDS
;	COMDAT ?_Pninc@?$basic_streambuf@DU?$char_traits@D@std@@@std@@IAEPADXZ
_TEXT	SEGMENT
?_Pninc@?$basic_streambuf@DU?$char_traits@D@std@@@std@@IAEPADXZ PROC ; std::basic_streambuf<char,std::char_traits<char> >::_Pninc, COMDAT
; _this$ = ecx

; 272  : 		--*_IPcount;

	mov	eax, DWORD PTR [ecx+52]
	add	DWORD PTR [eax], -1

; 273  : 		return ((*_IPnext)++);

	mov	ecx, DWORD PTR [ecx+36]
	mov	eax, DWORD PTR [ecx]
	lea	edx, DWORD PTR [eax+1]
	mov	DWORD PTR [ecx], edx

; 274  : 		}

	ret	0
?_Pninc@?$basic_streambuf@DU?$char_traits@D@std@@@std@@IAEPADXZ ENDP ; std::basic_streambuf<char,std::char_traits<char> >::_Pninc
; Function compile flags: /Ogtpy
_TEXT	ENDS
;	COMDAT ?setp@?$basic_streambuf@DU?$char_traits@D@std@@@std@@IAEXPAD00@Z
_TEXT	SEGMENT
?setp@?$basic_streambuf@DU?$char_traits@D@std@@@std@@IAEXPAD00@Z PROC ; std::basic_streambuf<char,std::char_traits<char> >::setp, COMDAT
; _this$ = ecx
; __First$ = edi
; __Next$ = edx
; __Last$ = eax

; 264  : 		{	// set pointers for write buffer, extended version

	push	esi

; 265  : 		*_IPfirst = _First;

	mov	esi, DWORD PTR [ecx+20]
	mov	DWORD PTR [esi], edi

; 266  : 		*_IPnext = _Next;

	mov	esi, DWORD PTR [ecx+36]
	mov	DWORD PTR [esi], edx

; 267  : 		*_IPcount = (int)(_Last - _Next);

	mov	ecx, DWORD PTR [ecx+52]
	sub	eax, edx
	mov	DWORD PTR [ecx], eax
	pop	esi

; 268  : 		}

	ret	0
?setp@?$basic_streambuf@DU?$char_traits@D@std@@@std@@IAEXPAD00@Z ENDP ; std::basic_streambuf<char,std::char_traits<char> >::setp
; Function compile flags: /Ogtpy
_TEXT	ENDS
;	COMDAT ?setp@?$basic_streambuf@DU?$char_traits@D@std@@@std@@IAEXPAD0@Z
_TEXT	SEGMENT
?setp@?$basic_streambuf@DU?$char_traits@D@std@@@std@@IAEXPAD0@Z PROC ; std::basic_streambuf<char,std::char_traits<char> >::setp, COMDAT
; _this$ = edx
; __First$ = ecx
; __Last$ = eax

; 257  : 		{	// set pointers for write buffer

	push	esi

; 258  : 		*_IPfirst = _First;

	mov	esi, DWORD PTR [edx+20]
	mov	DWORD PTR [esi], ecx

; 259  : 		*_IPnext = _First;

	mov	esi, DWORD PTR [edx+36]
	mov	DWORD PTR [esi], ecx

; 260  : 		*_IPcount = (int)(_Last - _First);

	sub	eax, ecx
	mov	ecx, DWORD PTR [edx+52]
	mov	DWORD PTR [ecx], eax
	pop	esi

; 261  : 		}

	ret	0
?setp@?$basic_streambuf@DU?$char_traits@D@std@@@std@@IAEXPAD0@Z ENDP ; std::basic_streambuf<char,std::char_traits<char> >::setp
; Function compile flags: /Ogtpy
_TEXT	ENDS
;	COMDAT ?pbump@?$basic_streambuf@DU?$char_traits@D@std@@@std@@IAEXH@Z
_TEXT	SEGMENT
?pbump@?$basic_streambuf@DU?$char_traits@D@std@@@std@@IAEXH@Z PROC ; std::basic_streambuf<char,std::char_traits<char> >::pbump, COMDAT
; _this$ = edx
; __Off$ = ecx

; 252  : 		*_IPcount -= _Off;

	mov	eax, DWORD PTR [edx+52]
	sub	DWORD PTR [eax], ecx

; 253  : 		*_IPnext += _Off;

	mov	eax, DWORD PTR [edx+36]
	add	DWORD PTR [eax], ecx

; 254  : 		}

	ret	0
?pbump@?$basic_streambuf@DU?$char_traits@D@std@@@std@@IAEXH@Z ENDP ; std::basic_streambuf<char,std::char_traits<char> >::pbump
; Function compile flags: /Ogtpy
_TEXT	ENDS
;	COMDAT ?epptr@?$basic_streambuf@DU?$char_traits@D@std@@@std@@IBEPADXZ
_TEXT	SEGMENT
?epptr@?$basic_streambuf@DU?$char_traits@D@std@@@std@@IBEPADXZ PROC ; std::basic_streambuf<char,std::char_traits<char> >::epptr, COMDAT
; _this$ = eax

; 224  : 		return (*_IPnext + *_IPcount);

	mov	ecx, DWORD PTR [eax+52]
	mov	edx, DWORD PTR [eax+36]
	mov	eax, DWORD PTR [ecx]
	add	eax, DWORD PTR [edx]

; 225  : 		}

	ret	0
?epptr@?$basic_streambuf@DU?$char_traits@D@std@@@std@@IBEPADXZ ENDP ; std::basic_streambuf<char,std::char_traits<char> >::epptr
; Function compile flags: /Ogtpy
_TEXT	ENDS
;	COMDAT ?setg@?$basic_streambuf@DU?$char_traits@D@std@@@std@@IAEXPAD00@Z
_TEXT	SEGMENT
?setg@?$basic_streambuf@DU?$char_traits@D@std@@@std@@IAEXPAD00@Z PROC ; std::basic_streambuf<char,std::char_traits<char> >::setg, COMDAT
; _this$ = ecx
; __First$ = edi
; __Next$ = edx
; __Last$ = eax

; 216  : 		{	// set pointers for read buffer

	push	esi

; 217  : 		*_IGfirst = _First;

	mov	esi, DWORD PTR [ecx+16]
	mov	DWORD PTR [esi], edi

; 218  : 		*_IGnext = _Next;

	mov	esi, DWORD PTR [ecx+32]
	mov	DWORD PTR [esi], edx

; 219  : 		*_IGcount = (int)(_Last - _Next);

	mov	ecx, DWORD PTR [ecx+48]
	sub	eax, edx
	mov	DWORD PTR [ecx], eax
	pop	esi

; 220  : 		}

	ret	0
?setg@?$basic_streambuf@DU?$char_traits@D@std@@@std@@IAEXPAD00@Z ENDP ; std::basic_streambuf<char,std::char_traits<char> >::setg
; Function compile flags: /Ogtpy
_TEXT	ENDS
;	COMDAT ?gbump@?$basic_streambuf@DU?$char_traits@D@std@@@std@@IAEXH@Z
_TEXT	SEGMENT
?gbump@?$basic_streambuf@DU?$char_traits@D@std@@@std@@IAEXH@Z PROC ; std::basic_streambuf<char,std::char_traits<char> >::gbump, COMDAT
; _this$ = edx
; __Off$ = ecx

; 211  : 		*_IGcount -= _Off;

	mov	eax, DWORD PTR [edx+48]
	sub	DWORD PTR [eax], ecx

; 212  : 		*_IGnext += _Off;

	mov	eax, DWORD PTR [edx+32]
	add	DWORD PTR [eax], ecx

; 213  : 		}

	ret	0
?gbump@?$basic_streambuf@DU?$char_traits@D@std@@@std@@IAEXH@Z ENDP ; std::basic_streambuf<char,std::char_traits<char> >::gbump
; Function compile flags: /Ogtpy
_TEXT	ENDS
;	COMDAT ?egptr@?$basic_streambuf@DU?$char_traits@D@std@@@std@@IBEPADXZ
_TEXT	SEGMENT
?egptr@?$basic_streambuf@DU?$char_traits@D@std@@@std@@IBEPADXZ PROC ; std::basic_streambuf<char,std::char_traits<char> >::egptr, COMDAT
; _this$ = eax

; 206  : 		return (*_IGnext + *_IGcount);

	mov	ecx, DWORD PTR [eax+48]
	mov	edx, DWORD PTR [eax+32]
	mov	eax, DWORD PTR [ecx]
	add	eax, DWORD PTR [edx]

; 207  : 		}

	ret	0
?egptr@?$basic_streambuf@DU?$char_traits@D@std@@@std@@IBEPADXZ ENDP ; std::basic_streambuf<char,std::char_traits<char> >::egptr
; Function compile flags: /Ogtpy
_TEXT	ENDS
;	COMDAT ?pptr@?$basic_streambuf@DU?$char_traits@D@std@@@std@@IBEPADXZ
_TEXT	SEGMENT
?pptr@?$basic_streambuf@DU?$char_traits@D@std@@@std@@IBEPADXZ PROC ; std::basic_streambuf<char,std::char_traits<char> >::pptr, COMDAT
; _this$ = eax

; 201  : 		return (*_IPnext);

	mov	ecx, DWORD PTR [eax+36]
	mov	eax, DWORD PTR [ecx]

; 202  : 		}

	ret	0
?pptr@?$basic_streambuf@DU?$char_traits@D@std@@@std@@IBEPADXZ ENDP ; std::basic_streambuf<char,std::char_traits<char> >::pptr
; Function compile flags: /Ogtpy
_TEXT	ENDS
;	COMDAT ?pbase@?$basic_streambuf@DU?$char_traits@D@std@@@std@@IBEPADXZ
_TEXT	SEGMENT
?pbase@?$basic_streambuf@DU?$char_traits@D@std@@@std@@IBEPADXZ PROC ; std::basic_streambuf<char,std::char_traits<char> >::pbase, COMDAT
; _this$ = eax

; 196  : 		return (*_IPfirst);

	mov	ecx, DWORD PTR [eax+20]
	mov	eax, DWORD PTR [ecx]

; 197  : 		}

	ret	0
?pbase@?$basic_streambuf@DU?$char_traits@D@std@@@std@@IBEPADXZ ENDP ; std::basic_streambuf<char,std::char_traits<char> >::pbase
; Function compile flags: /Ogtpy
_TEXT	ENDS
;	COMDAT ?eback@?$basic_streambuf@DU?$char_traits@D@std@@@std@@IBEPADXZ
_TEXT	SEGMENT
?eback@?$basic_streambuf@DU?$char_traits@D@std@@@std@@IBEPADXZ PROC ; std::basic_streambuf<char,std::char_traits<char> >::eback, COMDAT
; _this$ = eax

; 186  : 		return (*_IGfirst);

	mov	ecx, DWORD PTR [eax+16]
	mov	eax, DWORD PTR [ecx]

; 187  : 		}

	ret	0
?eback@?$basic_streambuf@DU?$char_traits@D@std@@@std@@IBEPADXZ ENDP ; std::basic_streambuf<char,std::char_traits<char> >::eback
; Function compile flags: /Ogtpy
; File c:\program files\microsoft visual studio 8\vc\include\ios
_TEXT	ENDS
;	COMDAT ?fill@?$basic_ios@DU?$char_traits@D@std@@@std@@QBEDXZ
_TEXT	SEGMENT
?fill@?$basic_ios@DU?$char_traits@D@std@@@std@@QBEDXZ PROC ; std::basic_ios<char,std::char_traits<char> >::fill, COMDAT
; _this$ = eax

; 106  : 		return (_Fillch);

	mov	al, BYTE PTR [eax+48]

; 107  : 		}

	ret	0
?fill@?$basic_ios@DU?$char_traits@D@std@@@std@@QBEDXZ ENDP ; std::basic_ios<char,std::char_traits<char> >::fill
; Function compile flags: /Ogtpy
; File c:\program files\microsoft visual studio 8\vc\include\vector
_TEXT	ENDS
;	COMDAT ??8?$_Vector_const_iterator@V?$basic_string@DU?$char_traits@D@std@@V?$allocator@D@2@@std@@V?$allocator@V?$basic_string@DU?$char_traits@D@std@@V?$allocator@D@2@@std@@@2@@std@@QBE_NABV01@@Z
_TEXT	SEGMENT
??8?$_Vector_const_iterator@V?$basic_string@DU?$char_traits@D@std@@V?$allocator@D@2@@std@@V?$allocator@V?$basic_string@DU?$char_traits@D@std@@V?$allocator@D@2@@std@@@2@@std@@QBE_NABV01@@Z PROC ; std::_Vector_const_iterator<std::basic_string<char,std::char_traits<char>,std::allocator<char> >,std::allocator<std::basic_string<char,std::char_traits<char>,std::allocator<char> > > >::operator==, COMDAT
; _this$ = edi
; __Right$ = esi

; 191  : 
; 192  :  #if _HAS_ITERATOR_DEBUGGING
; 193  : 		_Compat(_Right);
; 194  :  #else
; 195  : 		_SCL_SECURE_VALIDATE(this->_Mycont != NULL && this->_Mycont == _Right._Mycont);

	mov	eax, DWORD PTR [edi]
	test	eax, eax
	je	SHORT $LN1@operator@4
	cmp	eax, DWORD PTR [esi]
	je	SHORT $LN2@operator@4
$LN1@operator@4:
	call	__invalid_parameter_noinfo
$LN2@operator@4:

; 196  :  #endif /* _HAS_ITERATOR_DEBUGGING */
; 197  : 
; 198  : 		return (_Myptr == _Right._Myptr);

	mov	eax, DWORD PTR [edi+4]
	xor	ecx, ecx
	cmp	eax, DWORD PTR [esi+4]
	sete	cl
	mov	al, cl

; 199  : 		}

	ret	0
??8?$_Vector_const_iterator@V?$basic_string@DU?$char_traits@D@std@@V?$allocator@D@2@@std@@V?$allocator@V?$basic_string@DU?$char_traits@D@std@@V?$allocator@D@2@@std@@@2@@std@@QBE_NABV01@@Z ENDP ; std::_Vector_const_iterator<std::basic_string<char,std::char_traits<char>,std::allocator<char> >,std::allocator<std::basic_string<char,std::char_traits<char>,std::allocator<char> > > >::operator==
; Function compile flags: /Ogtpy
_TEXT	ENDS
;	COMDAT ??E?$_Vector_iterator@V?$basic_string@DU?$char_traits@D@std@@V?$allocator@D@2@@std@@V?$allocator@V?$basic_string@DU?$char_traits@D@std@@V?$allocator@D@2@@std@@@2@@std@@QAEAAV01@XZ
_TEXT	SEGMENT
??E?$_Vector_iterator@V?$basic_string@DU?$char_traits@D@std@@V?$allocator@D@2@@std@@V?$allocator@V?$basic_string@DU?$char_traits@D@std@@V?$allocator@D@2@@std@@@2@@std@@QAEAAV01@XZ PROC ; std::_Vector_iterator<std::basic_string<char,std::char_traits<char>,std::allocator<char> >,std::allocator<std::basic_string<char,std::char_traits<char>,std::allocator<char> > > >::operator++, COMDAT
; _this$ = esi

; 336  : 		++(*(_Mybase *)this);

	cmp	DWORD PTR [esi], 0
	jne	SHORT $LN4@operator@5
	call	__invalid_parameter_noinfo
$LN4@operator@5:
	mov	eax, DWORD PTR [esi]
	mov	ecx, DWORD PTR [esi+4]
	cmp	ecx, DWORD PTR [eax+8]
	jb	SHORT $LN7@operator@5
	call	__invalid_parameter_noinfo
$LN7@operator@5:
	add	DWORD PTR [esi+4], 28			; 0000001cH

; 337  : 		return (*this);

	mov	eax, esi

; 338  : 		}

	ret	0
??E?$_Vector_iterator@V?$basic_string@DU?$char_traits@D@std@@V?$allocator@D@2@@std@@V?$allocator@V?$basic_string@DU?$char_traits@D@std@@V?$allocator@D@2@@std@@@2@@std@@QAEAAV01@XZ ENDP ; std::_Vector_iterator<std::basic_string<char,std::char_traits<char>,std::allocator<char> >,std::allocator<std::basic_string<char,std::char_traits<char>,std::allocator<char> > > >::operator++
; Function compile flags: /Ogtpy
_TEXT	ENDS
;	COMDAT ??D?$_Vector_iterator@V?$basic_string@DU?$char_traits@D@std@@V?$allocator@D@2@@std@@V?$allocator@V?$basic_string@DU?$char_traits@D@std@@V?$allocator@D@2@@std@@@2@@std@@QBEAAV?$basic_string@DU?$char_traits@D@std@@V?$allocator@D@2@@1@XZ
_TEXT	SEGMENT
??D?$_Vector_iterator@V?$basic_string@DU?$char_traits@D@std@@V?$allocator@D@2@@std@@V?$allocator@V?$basic_string@DU?$char_traits@D@std@@V?$allocator@D@2@@std@@@2@@std@@QBEAAV?$basic_string@DU?$char_traits@D@std@@V?$allocator@D@2@@1@XZ PROC ; std::_Vector_iterator<std::basic_string<char,std::char_traits<char>,std::allocator<char> >,std::allocator<std::basic_string<char,std::char_traits<char>,std::allocator<char> > > >::operator*, COMDAT
; _this$ = esi

; 326  : 		return ((reference)**(_Mybase *)this);

	cmp	DWORD PTR [esi], 0
	jne	SHORT $LN4@operator@6
	call	__invalid_parameter_noinfo
$LN4@operator@6:
	mov	eax, DWORD PTR [esi]
	mov	ecx, DWORD PTR [esi+4]
	cmp	ecx, DWORD PTR [eax+8]
	jb	SHORT $LN7@operator@6
	call	__invalid_parameter_noinfo
	mov	eax, DWORD PTR [esi+4]

; 327  : 		}

	ret	0
$LN7@operator@6:

; 326  : 		return ((reference)**(_Mybase *)this);

	mov	eax, ecx

; 327  : 		}

	ret	0
??D?$_Vector_iterator@V?$basic_string@DU?$char_traits@D@std@@V?$allocator@D@2@@std@@V?$allocator@V?$basic_string@DU?$char_traits@D@std@@V?$allocator@D@2@@std@@@2@@std@@QBEAAV?$basic_string@DU?$char_traits@D@std@@V?$allocator@D@2@@1@XZ ENDP ; std::_Vector_iterator<std::basic_string<char,std::char_traits<char>,std::allocator<char> >,std::allocator<std::basic_string<char,std::char_traits<char>,std::allocator<char> > > >::operator*
; Function compile flags: /Ogtpy
; File c:\program files\microsoft visual studio 8\vc\include\streambuf
_TEXT	ENDS
;	COMDAT ?imbue@?$basic_streambuf@DU?$char_traits@D@std@@@std@@MAEXABVlocale@2@@Z
_TEXT	SEGMENT
___formal$ = 8						; size = 4
?imbue@?$basic_streambuf@DU?$char_traits@D@std@@@std@@MAEXABVlocale@2@@Z PROC ; std::basic_streambuf<char,std::char_traits<char> >::imbue, COMDAT
; _this$ = ecx

; 415  : 		}

	ret	4
?imbue@?$basic_streambuf@DU?$char_traits@D@std@@@std@@MAEXABVlocale@2@@Z ENDP ; std::basic_streambuf<char,std::char_traits<char> >::imbue
; Function compile flags: /Ogtpy
_TEXT	ENDS
;	COMDAT ?sync@?$basic_streambuf@DU?$char_traits@D@std@@@std@@MAEHXZ
_TEXT	SEGMENT
?sync@?$basic_streambuf@DU?$char_traits@D@std@@@std@@MAEHXZ PROC ; std::basic_streambuf<char,std::char_traits<char> >::sync, COMDAT
; _this$ = ecx

; 410  : 		return (0);

	xor	eax, eax

; 411  : 		}

	ret	0
?sync@?$basic_streambuf@DU?$char_traits@D@std@@@std@@MAEHXZ ENDP ; std::basic_streambuf<char,std::char_traits<char> >::sync
; Function compile flags: /Ogtpy
_TEXT	ENDS
;	COMDAT ?setbuf@?$basic_streambuf@DU?$char_traits@D@std@@@std@@MAEPAV12@PADH@Z
_TEXT	SEGMENT
___formal$ = 8						; size = 4
___formal$ = 12						; size = 4
?setbuf@?$basic_streambuf@DU?$char_traits@D@std@@@std@@MAEPAV12@PADH@Z PROC ; std::basic_streambuf<char,std::char_traits<char> >::setbuf, COMDAT
; _this$ = ecx

; 404  : 		{	// offer buffer to external agent (do nothing)

	mov	eax, ecx

; 405  : 		return (this);
; 406  : 		}

	ret	8
?setbuf@?$basic_streambuf@DU?$char_traits@D@std@@@std@@MAEPAV12@PADH@Z ENDP ; std::basic_streambuf<char,std::char_traits<char> >::setbuf
; Function compile flags: /Ogtpy
_TEXT	ENDS
;	COMDAT ?seekpos@?$basic_streambuf@DU?$char_traits@D@std@@@std@@MAE?AV?$fpos@H@2@V32@H@Z
_TEXT	SEGMENT
___$ReturnUdt$ = 8					; size = 4
___formal$ = 12						; size = 24
___formal$ = 36						; size = 4
?seekpos@?$basic_streambuf@DU?$char_traits@D@std@@@std@@MAE?AV?$fpos@H@2@V32@H@Z PROC ; std::basic_streambuf<char,std::char_traits<char> >::seekpos, COMDAT
; _this$ = ecx

; 400  : 		return (streampos(_BADOFF));

	mov	eax, DWORD PTR ___$ReturnUdt$[esp-4]
	mov	ecx, DWORD PTR ?_BADOFF@std@@3JB	; std::_BADOFF
	mov	DWORD PTR [eax], ecx
	xor	ecx, ecx
	mov	DWORD PTR [eax+8], ecx
	mov	DWORD PTR [eax+12], ecx
	mov	DWORD PTR [eax+16], ecx

; 401  : 		}

	ret	32					; 00000020H
?seekpos@?$basic_streambuf@DU?$char_traits@D@std@@@std@@MAE?AV?$fpos@H@2@V32@H@Z ENDP ; std::basic_streambuf<char,std::char_traits<char> >::seekpos
; Function compile flags: /Ogtpy
_TEXT	ENDS
;	COMDAT ?seekoff@?$basic_streambuf@DU?$char_traits@D@std@@@std@@MAE?AV?$fpos@H@2@JHH@Z
_TEXT	SEGMENT
___$ReturnUdt$ = 8					; size = 4
___formal$ = 12						; size = 4
___formal$ = 16						; size = 4
___formal$ = 20						; size = 4
?seekoff@?$basic_streambuf@DU?$char_traits@D@std@@@std@@MAE?AV?$fpos@H@2@JHH@Z PROC ; std::basic_streambuf<char,std::char_traits<char> >::seekoff, COMDAT
; _this$ = ecx

; 394  : 		return (streampos(_BADOFF));

	mov	eax, DWORD PTR ___$ReturnUdt$[esp-4]
	mov	ecx, DWORD PTR ?_BADOFF@std@@3JB	; std::_BADOFF
	mov	DWORD PTR [eax], ecx
	xor	ecx, ecx
	mov	DWORD PTR [eax+8], ecx
	mov	DWORD PTR [eax+12], ecx
	mov	DWORD PTR [eax+16], ecx

; 395  : 		}

	ret	16					; 00000010H
?seekoff@?$basic_streambuf@DU?$char_traits@D@std@@@std@@MAE?AV?$fpos@H@2@JHH@Z ENDP ; std::basic_streambuf<char,std::char_traits<char> >::seekoff
; Function compile flags: /Ogtpy
_TEXT	ENDS
;	COMDAT ?xsgetn@?$basic_streambuf@DU?$char_traits@D@std@@@std@@MAEHPADH@Z
_TEXT	SEGMENT
__Ptr$ = 8						; size = 4
__Count$ = 12						; size = 4
?xsgetn@?$basic_streambuf@DU?$char_traits@D@std@@@std@@MAEHPADH@Z PROC ; std::basic_streambuf<char,std::char_traits<char> >::xsgetn, COMDAT
; _this$ = ecx

; 327  : 		// assume the destination buffer is large enough
; 328  : 		return _Xsgetn_s(_Ptr, (size_t)-1, _Count);

	mov	edx, DWORD PTR __Count$[esp-4]
	mov	eax, DWORD PTR [ecx]
	mov	eax, DWORD PTR [eax+28]
	push	edx
	mov	edx, DWORD PTR __Ptr$[esp]
	push	-1
	push	edx
	call	eax

; 329  : 		}

	ret	8
?xsgetn@?$basic_streambuf@DU?$char_traits@D@std@@@std@@MAEHPADH@Z ENDP ; std::basic_streambuf<char,std::char_traits<char> >::xsgetn
; Function compile flags: /Ogtpy
_TEXT	ENDS
;	COMDAT ?showmanyc@?$basic_streambuf@DU?$char_traits@D@std@@@std@@MAEHXZ
_TEXT	SEGMENT
?showmanyc@?$basic_streambuf@DU?$char_traits@D@std@@@std@@MAEHXZ PROC ; std::basic_streambuf<char,std::char_traits<char> >::showmanyc, COMDAT
; _this$ = ecx

; 309  : 		return (0);

	xor	eax, eax

; 310  : 		}

	ret	0
?showmanyc@?$basic_streambuf@DU?$char_traits@D@std@@@std@@MAEHXZ ENDP ; std::basic_streambuf<char,std::char_traits<char> >::showmanyc
; Function compile flags: /Ogtpy
; File c:\program files\microsoft visual studio 8\vc\include\ostream
_TEXT	ENDS
;	COMDAT ??6?$basic_ostream@DU?$char_traits@D@std@@@std@@QAEAAV01@P6AAAVios_base@1@AAV21@@Z@Z
_TEXT	SEGMENT
__Pfn$ = 8						; size = 4
??6?$basic_ostream@DU?$char_traits@D@std@@@std@@QAEAAV01@P6AAAVios_base@1@AAV21@@Z@Z PROC ; std::basic_ostream<char,std::char_traits<char> >::operator<<, COMDAT
; _this$ = esi

; 183  : 		_DEBUG_POINTER(_Pfn);
; 184  : 		(*_Pfn)(*(ios_base *)this);

	test	esi, esi
	jne	SHORT $LN3@operator@7
	xor	eax, eax
	push	eax
	call	DWORD PTR __Pfn$[esp]
	add	esp, 4

; 185  : 		return (*this);

	mov	eax, esi

; 186  : 		}

	ret	4
$LN3@operator@7:

; 183  : 		_DEBUG_POINTER(_Pfn);
; 184  : 		(*_Pfn)(*(ios_base *)this);

	mov	eax, DWORD PTR [esi]
	mov	eax, DWORD PTR [eax+4]
	add	eax, esi
	push	eax
	call	DWORD PTR __Pfn$[esp]
	add	esp, 4

; 185  : 		return (*this);

	mov	eax, esi

; 186  : 		}

	ret	4
??6?$basic_ostream@DU?$char_traits@D@std@@@std@@QAEAAV01@P6AAAVios_base@1@AAV21@@Z@Z ENDP ; std::basic_ostream<char,std::char_traits<char> >::operator<<
; Function compile flags: /Ogtpy
_TEXT	ENDS
;	COMDAT ??1?$basic_ostream@DU?$char_traits@D@std@@@std@@UAE@XZ
_TEXT	SEGMENT
??1?$basic_ostream@DU?$char_traits@D@std@@@std@@UAE@XZ PROC ; std::basic_ostream<char,std::char_traits<char> >::~basic_ostream<char,std::char_traits<char> >, COMDAT
; _this$ = ecx

; 61   : 		{	// destroy the object

	mov	eax, DWORD PTR [ecx-4]
	mov	edx, DWORD PTR [eax+4]
	mov	DWORD PTR [edx+ecx-4], OFFSET ??_7?$basic_ostream@DU?$char_traits@D@std@@@std@@6B@

; 62   : 		}

	ret	0
??1?$basic_ostream@DU?$char_traits@D@std@@@std@@UAE@XZ ENDP ; std::basic_ostream<char,std::char_traits<char> >::~basic_ostream<char,std::char_traits<char> >
_TEXT	ENDS
PUBLIC	??1Writer@Json@@UAE@XZ				; Json::Writer::~Writer
; Function compile flags: /Ogtpy
; File f:\cygwin\home\charles\gusale\gusale\lib\jsoncpp-src-0.5.0\src\lib_json\json_writer.cpp
;	COMDAT ??1Writer@Json@@UAE@XZ
_TEXT	SEGMENT
??1Writer@Json@@UAE@XZ PROC				; Json::Writer::~Writer, COMDAT
; _this$ = ecx

; 177  : {

	mov	DWORD PTR [ecx], OFFSET ??_7Writer@Json@@6B@

; 178  : }

	ret	0
??1Writer@Json@@UAE@XZ ENDP				; Json::Writer::~Writer
; Function compile flags: /Ogtpy
_TEXT	ENDS
;	COMDAT ?uintToString@Json@@YAXIAAPAD@Z
_TEXT	SEGMENT
?uintToString@Json@@YAXIAAPAD@Z PROC			; Json::uintToString, COMDAT
; _value$ = ecx
; _current$ = edi

; 33   :    *--current = 0;

	add	DWORD PTR [edi], -1
	push	ebx
	push	esi
	mov	esi, DWORD PTR [edi]
	mov	BYTE PTR [esi], 0
	npad	6
$LL3@uintToStri:

; 34   :    do
; 35   :    {
; 36   :       *--current = (value % 10) + '0';

	mov	eax, -858993459				; cccccccdH
	mul	ecx
	shr	edx, 3
	mov	al, dl
	mov	bl, 10					; 0000000aH
	imul	bl
	sub	cl, al
	add	cl, 48					; 00000030H
	sub	esi, 1
	mov	BYTE PTR [esi], cl

; 37   :       value /= 10;

	mov	ecx, edx

; 38   :    }
; 39   :    while ( value != 0 );

	test	ecx, ecx
	jne	SHORT $LL3@uintToStri
	mov	DWORD PTR [edi], esi
	pop	esi
	pop	ebx

; 40   : }

	ret	0
?uintToString@Json@@YAXIAAPAD@Z ENDP			; Json::uintToString
; Function compile flags: /Ogtpy
_TEXT	ENDS
;	COMDAT ?isControlCharacter@Json@@YA_ND@Z
_TEXT	SEGMENT
?isControlCharacter@Json@@YA_ND@Z PROC			; Json::isControlCharacter, COMDAT
; _ch$ = eax

; 18   :    return ch > 0 && ch <= 0x1F;

	sub	al, 1
	mov	cl, 30					; 0000001eH
	cmp	cl, al
	sbb	eax, eax
	add	eax, 1

; 19   : }

	ret	0
?isControlCharacter@Json@@YA_ND@Z ENDP			; Json::isControlCharacter
; Function compile flags: /Ogtpy
; File c:\program files\microsoft visual studio 8\vc\include\xiosbase
_TEXT	ENDS
;	COMDAT ??0ios_base@std@@IAE@XZ
_TEXT	SEGMENT
??0ios_base@std@@IAE@XZ PROC				; std::ios_base::ios_base, COMDAT
; _this$ = eax

; 498  : 	__CLR_OR_THIS_CALL ios_base()

	mov	DWORD PTR [eax], OFFSET ??_7ios_base@std@@6B@

; 499  : 		{	// default constructor
; 500  : 		}

	ret	0
??0ios_base@std@@IAE@XZ ENDP				; std::ios_base::ios_base
; Function compile flags: /Ogtpy
_TEXT	ENDS
;	COMDAT ??1ios_base@std@@UAE@XZ
_TEXT	SEGMENT
??1ios_base@std@@UAE@XZ PROC				; std::ios_base::~ios_base, COMDAT
; _this$ = ecx

; 482  :         _Ios_base_dtor(this);

	push	ecx
	mov	DWORD PTR [ecx], OFFSET ??_7ios_base@std@@6B@
	call	?_Ios_base_dtor@ios_base@std@@CAXPAV12@@Z ; std::ios_base::_Ios_base_dtor
	pop	ecx

; 483  :         }

	ret	0
??1ios_base@std@@UAE@XZ ENDP				; std::ios_base::~ios_base
; Function compile flags: /Ogtpy
_TEXT	ENDS
;	COMDAT ?width@ios_base@std@@QAEHH@Z
_TEXT	SEGMENT
__Newwidth$ = 8						; size = 4
?width@ios_base@std@@QAEHH@Z PROC			; std::ios_base::width, COMDAT
; _this$ = ecx

; 412  : 		streamsize _Oldwidth = _Wide;
; 413  : 		_Wide = _Newwidth;

	mov	edx, DWORD PTR __Newwidth$[esp-4]
	mov	eax, DWORD PTR [ecx+24]
	mov	DWORD PTR [ecx+24], edx

; 414  : 		return (_Oldwidth);
; 415  : 		}

	ret	4
?width@ios_base@std@@QAEHH@Z ENDP			; std::ios_base::width
; Function compile flags: /Ogtpy
_TEXT	ENDS
;	COMDAT ?width@ios_base@std@@QBEHXZ
_TEXT	SEGMENT
?width@ios_base@std@@QBEHXZ PROC			; std::ios_base::width, COMDAT
; _this$ = eax

; 407  : 		return (_Wide);

	mov	eax, DWORD PTR [eax+24]

; 408  : 		}

	ret	0
?width@ios_base@std@@QBEHXZ ENDP			; std::ios_base::width
; Function compile flags: /Ogtpy
_TEXT	ENDS
;	COMDAT ?precision@ios_base@std@@QBEHXZ
_TEXT	SEGMENT
?precision@ios_base@std@@QBEHXZ PROC			; std::ios_base::precision, COMDAT
; _this$ = eax

; 395  : 		return (_Prec);

	mov	eax, DWORD PTR [eax+20]

; 396  : 		}

	ret	0
?precision@ios_base@std@@QBEHXZ ENDP			; std::ios_base::precision
; Function compile flags: /Ogtpy
_TEXT	ENDS
;	COMDAT ?setf@ios_base@std@@QAEHHH@Z
_TEXT	SEGMENT
__Newfmtflags$ = 8					; size = 4
__Mask$ = 12						; size = 4
?setf@ios_base@std@@QAEHHH@Z PROC			; std::ios_base::setf, COMDAT
; _this$ = ecx

; 382  : 		ios_base::fmtflags _Oldfmtflags = _Fmtfl;
; 383  : 		_Fmtfl = (fmtflags)(((int)_Fmtfl & (int)~_Mask)
; 384  : 			| ((int)_Newfmtflags & (int)_Mask & (int)_Fmtmask));

	mov	edx, DWORD PTR __Mask$[esp-4]
	mov	eax, DWORD PTR [ecx+16]
	push	esi
	push	edi
	mov	edi, DWORD PTR __Newfmtflags$[esp+4]
	mov	esi, edx
	not	esi
	and	edi, edx
	and	esi, eax
	and	edi, 65535				; 0000ffffH
	or	esi, edi
	pop	edi
	mov	DWORD PTR [ecx+16], esi
	pop	esi

; 385  : 		return (_Oldfmtflags);
; 386  : 		}

	ret	8
?setf@ios_base@std@@QAEHHH@Z ENDP			; std::ios_base::setf
; Function compile flags: /Ogtpy
_TEXT	ENDS
;	COMDAT ?setf@ios_base@std@@QAEHH@Z
_TEXT	SEGMENT
?setf@ios_base@std@@QAEHH@Z PROC			; std::ios_base::setf, COMDAT
; _this$ = ecx

; 374  : 		ios_base::fmtflags _Oldfmtflags = _Fmtfl;

	mov	eax, DWORD PTR [ecx+16]

; 375  : 		_Fmtfl = (fmtflags)((int)_Fmtfl
; 376  : 			| (int)_Newfmtflags & (int)_Fmtmask);

	mov	edx, eax
	or	edx, 4
	mov	DWORD PTR [ecx+16], edx

; 377  : 		return (_Oldfmtflags);
; 378  : 		}

	ret	0
?setf@ios_base@std@@QAEHH@Z ENDP			; std::ios_base::setf
; Function compile flags: /Ogtpy
; File c:\program files\microsoft visual studio 8\vc\include\xlocale
_TEXT	ENDS
;	COMDAT ?widen@?$ctype@D@std@@QBEDD@Z
_TEXT	SEGMENT
?widen@?$ctype@D@std@@QBEDD@Z PROC			; std::ctype<char>::widen, COMDAT
; _this$ = ecx

; 1685 : 		return (do_widen(_Byte));

	mov	eax, DWORD PTR [ecx]
	mov	edx, DWORD PTR [eax+24]
	push	32					; 00000020H
	call	edx

; 1686 : 		}

	ret	0
?widen@?$ctype@D@std@@QBEDD@Z ENDP			; std::ctype<char>::widen
; Function compile flags: /Ogtpy
_TEXT	ENDS
;	COMDAT ??0id@locale@std@@QAE@I@Z
_TEXT	SEGMENT
__Val$ = 8						; size = 4
??0id@locale@std@@QAE@I@Z PROC				; std::locale::id::id, COMDAT
; _this$ = ecx

; 73   : 			{	// construct with specified stamp value

	mov	eax, ecx
	mov	ecx, DWORD PTR __Val$[esp-4]
	mov	DWORD PTR [eax], ecx

; 74   : 			}

	ret	4
??0id@locale@std@@QAE@I@Z ENDP				; std::locale::id::id
; Function compile flags: /Ogtpy
; File c:\program files\microsoft visual studio 8\vc\include\xlocinfo
_TEXT	ENDS
;	COMDAT ?_Gettrue@_Locinfo@std@@QBEPBDXZ
_TEXT	SEGMENT
?_Gettrue@_Locinfo@std@@QBEPBDXZ PROC			; std::_Locinfo::_Gettrue, COMDAT

; 168  : 		return ("true");

	mov	eax, OFFSET ??_C@_04LOAJBDKD@true?$AA@

; 169  : 		}

	ret	0
?_Gettrue@_Locinfo@std@@QBEPBDXZ ENDP			; std::_Locinfo::_Gettrue
; Function compile flags: /Ogtpy
_TEXT	ENDS
;	COMDAT ?_Getfalse@_Locinfo@std@@QBEPBDXZ
_TEXT	SEGMENT
?_Getfalse@_Locinfo@std@@QBEPBDXZ PROC			; std::_Locinfo::_Getfalse, COMDAT

; 163  : 		return ("false");

	mov	eax, OFFSET ??_C@_05LAPONLG@false?$AA@

; 164  : 		}

	ret	0
?_Getfalse@_Locinfo@std@@QBEPBDXZ ENDP			; std::_Locinfo::_Getfalse
; Function compile flags: /Ogtpy
_TEXT	ENDS
;	COMDAT ?_Getlconv@_Locinfo@std@@QBEPBUlconv@@XZ
_TEXT	SEGMENT
?_Getlconv@_Locinfo@std@@QBEPBUlconv@@XZ PROC		; std::_Locinfo::_Getlconv, COMDAT

; 125  : 		return (localeconv());

	jmp	_localeconv
?_Getlconv@_Locinfo@std@@QBEPBUlconv@@XZ ENDP		; std::_Locinfo::_Getlconv
; Function compile flags: /Ogtpy
_TEXT	ENDS
;	COMDAT ?_Getcvt@_Locinfo@std@@QBE?AU_Cvtvec@@XZ
_TEXT	SEGMENT
?_Getcvt@_Locinfo@std@@QBE?AU_Cvtvec@@XZ PROC		; std::_Locinfo::_Getcvt, COMDAT
; ___$ReturnUdt$ = esi

; 120  : 		return (::_Getcvt());

	call	__Getcvt
	mov	DWORD PTR [esi], eax
	mov	DWORD PTR [esi+4], edx
	mov	eax, esi

; 121  : 		}

	ret	0
?_Getcvt@_Locinfo@std@@QBE?AU_Cvtvec@@XZ ENDP		; std::_Locinfo::_Getcvt
; Function compile flags: /Ogtpy
; File c:\program files\microsoft visual studio 8\vc\include\iosfwd
_TEXT	ENDS
;	COMDAT ?eq@?$char_traits@D@std@@SA_NABD0@Z
_TEXT	SEGMENT
?eq@?$char_traits@D@std@@SA_NABD0@Z PROC		; std::char_traits<char>::eq, COMDAT
; __Left$ = eax
; __Right$ = edx

; 423  : 		return (_Left == _Right);

	mov	cl, BYTE PTR [eax]
	xor	eax, eax
	cmp	cl, BYTE PTR [edx]
	sete	al

; 424  : 		}

	ret	0
?eq@?$char_traits@D@std@@SA_NABD0@Z ENDP		; std::char_traits<char>::eq
EXTRN	__CxxThrowException@8:PROC
;	COMDAT xdata$x
; File c:\program files\microsoft visual studio 8\vc\include\xlocale
xdata$x	SEGMENT
__unwindtable$?_Init@?$numpunct@D@std@@IAEXABV_Locinfo@2@@Z DD 0ffffffffH
	DD	00H
	DD	0ffffffffH
	DD	00H
__catchsym$?_Init@?$numpunct@D@std@@IAEXABV_Locinfo@2@@Z$2 DD 040H
	DD	00H
	DD	00H
	DD	FLAT:__catch$?_Init@?$numpunct@D@std@@IAEXABV_Locinfo@2@@Z$0
__tryblocktable$?_Init@?$numpunct@D@std@@IAEXABV_Locinfo@2@@Z DD 00H
	DD	00H
	DD	01H
	DD	01H
	DD	FLAT:__catchsym$?_Init@?$numpunct@D@std@@IAEXABV_Locinfo@2@@Z$2
__ehfuncinfo$?_Init@?$numpunct@D@std@@IAEXABV_Locinfo@2@@Z DD 019930522H
	DD	02H
	DD	FLAT:__unwindtable$?_Init@?$numpunct@D@std@@IAEXABV_Locinfo@2@@Z
	DD	01H
	DD	FLAT:__tryblocktable$?_Init@?$numpunct@D@std@@IAEXABV_Locinfo@2@@Z
	DD	2 DUP(00H)
	DD	00H
	DD	01H
; Function compile flags: /Ogtpy
; File c:\program files\microsoft visual studio 8\vc\include\xlocnum
xdata$x	ENDS
;	COMDAT ?_Init@?$numpunct@D@std@@IAEXABV_Locinfo@2@@Z
_TEXT	SEGMENT
__Ptr$ = -20						; size = 4
__$EHRec$ = -16						; size = 16
_this$ = 8						; size = 4
?_Init@?$numpunct@D@std@@IAEXABV_Locinfo@2@@Z PROC	; std::numpunct<char>::_Init, COMDAT

; 123  : 		{	// initialize from _Lobj

	push	ebp
	mov	ebp, esp
	push	-1
	push	__ehhandler$?_Init@?$numpunct@D@std@@IAEXABV_Locinfo@2@@Z
	mov	eax, DWORD PTR fs:0
	push	eax
	sub	esp, 8
	push	ebx
	push	esi
	push	edi
	mov	eax, DWORD PTR ___security_cookie
	xor	eax, ebp
	push	eax
	lea	eax, DWORD PTR __$EHRec$[ebp+4]
	mov	DWORD PTR fs:0, eax
	mov	DWORD PTR __$EHRec$[ebp], esp
	mov	ebx, DWORD PTR _this$[ebp]

; 124  : 		const lconv *_Ptr = _Lobj._Getlconv();

	call	_localeconv
	mov	esi, eax

; 125  : 
; 126  : 		_Grouping = 0;

	xor	eax, eax
	mov	DWORD PTR __Ptr$[ebp], esi
	mov	DWORD PTR [ebx+8], eax

; 127  : 		_Falsename = 0;

	mov	DWORD PTR [ebx+16], eax

; 128  : 		_Truename = 0;

	mov	DWORD PTR [ebx+20], eax

; 129  : 
; 130  : 		_TRY_BEGIN

	mov	DWORD PTR __$EHRec$[ebp+12], eax

; 131  : 		_Grouping = _MAKLOCSTR(char, _Ptr->grouping, _Lobj._Getcvt());

	call	__Getcvt
	mov	edi, DWORD PTR [esi+8]
	mov	eax, edi
	lea	edx, DWORD PTR [eax+1]
$LL46@Init:
	mov	cl, BYTE PTR [eax]
	add	eax, 1
	test	cl, cl
	jne	SHORT $LL46@Init
	sub	eax, edx
	lea	esi, DWORD PTR [eax+1]
	push	esi
	call	??_U@YAPAXI@Z				; operator new[]
	add	esp, 4
	mov	ecx, eax
	npad	4
$LL14@Init:
	test	esi, esi
	jbe	SHORT $LN12@Init
	mov	dl, BYTE PTR [edi]
	mov	BYTE PTR [ecx], dl
	sub	esi, 1
	add	ecx, 1
	add	edi, 1
	jmp	SHORT $LL14@Init
$LN12@Init:
	mov	DWORD PTR [ebx+8], eax

; 132  : 		_Falsename = _MAKLOCSTR(_Elem, _Lobj._Getfalse(), _Lobj._Getcvt());

	call	__Getcvt
	mov	edi, OFFSET ??_C@_05LAPONLG@false?$AA@
	mov	eax, edi
	lea	edx, DWORD PTR [eax+1]
$LL47@Init:
	mov	cl, BYTE PTR [eax]
	add	eax, 1
	test	cl, cl
	jne	SHORT $LL47@Init
	sub	eax, edx
	lea	esi, DWORD PTR [eax+1]
	push	esi
	call	??_U@YAPAXI@Z				; operator new[]
	add	esp, 4
	mov	ecx, eax
	npad	2
$LL23@Init:
	test	esi, esi
	jbe	SHORT $LN21@Init
	mov	dl, BYTE PTR [edi]
	mov	BYTE PTR [ecx], dl
	sub	esi, 1
	add	ecx, 1
	add	edi, 1
	jmp	SHORT $LL23@Init
$LN21@Init:
	mov	DWORD PTR [ebx+16], eax

; 133  : 		_Truename = _MAKLOCSTR(_Elem, _Lobj._Gettrue(), _Lobj._Getcvt());

	call	__Getcvt
	mov	edi, OFFSET ??_C@_04LOAJBDKD@true?$AA@
	mov	eax, edi
	lea	edx, DWORD PTR [eax+1]
$LL48@Init:
	mov	cl, BYTE PTR [eax]
	add	eax, 1
	test	cl, cl
	jne	SHORT $LL48@Init
	sub	eax, edx
	lea	esi, DWORD PTR [eax+1]
	push	esi
	call	??_U@YAPAXI@Z				; operator new[]
	add	esp, 4
	mov	ecx, eax
	npad	2
$LL32@Init:
	test	esi, esi
	jbe	SHORT $LN30@Init
	mov	dl, BYTE PTR [edi]
	mov	BYTE PTR [ecx], dl
	sub	esi, 1
	add	ecx, 1
	add	edi, 1
	jmp	SHORT $LL32@Init
$LN30@Init:
	mov	DWORD PTR [ebx+20], eax

; 137  : 		_CATCH_END
; 138  : 
; 139  : 		_Dp = _MAKLOCCHR(_Elem, _Ptr->decimal_point[0], _Lobj._Getcvt());

	call	__Getcvt
	mov	esi, DWORD PTR __Ptr$[ebp]
	mov	eax, DWORD PTR [esi]
	mov	cl, BYTE PTR [eax]
	mov	BYTE PTR [ebx+12], cl

; 140  : 		_Kseparator =
; 141  : 			_MAKLOCCHR(_Elem, _Ptr->thousands_sep[0], _Lobj._Getcvt());

	call	__Getcvt
	mov	edx, DWORD PTR [esi+4]
	mov	al, BYTE PTR [edx]
	mov	BYTE PTR [ebx+13], al

; 142  : 		}

	mov	ecx, DWORD PTR __$EHRec$[ebp+4]
	mov	DWORD PTR fs:0, ecx
	pop	ecx
	pop	edi
	pop	esi
	pop	ebx
	mov	esp, ebp
	pop	ebp
	ret	4
__catch$?_Init@?$numpunct@D@std@@IAEXABV_Locinfo@2@@Z$0:

; 134  : 		_CATCH_ALL
; 135  : 		_Tidy();

	mov	esi, DWORD PTR _this$[ebp]
	call	?_Tidy@?$numpunct@D@std@@AAEXXZ		; std::numpunct<char>::_Tidy

; 136  : 		_RERAISE;

	push	0
	push	0
	call	__CxxThrowException@8
$LN51@Init:
$LN50@Init:
	int	3
_TEXT	ENDS
;	COMDAT text$x
text$x	SEGMENT
__ehhandler$?_Init@?$numpunct@D@std@@IAEXABV_Locinfo@2@@Z:
	mov	edx, DWORD PTR [esp+8]
	lea	eax, DWORD PTR [edx+12]
	mov	ecx, DWORD PTR [edx-24]
	xor	ecx, eax
	call	@__security_check_cookie@4
	mov	eax, OFFSET __ehfuncinfo$?_Init@?$numpunct@D@std@@IAEXABV_Locinfo@2@@Z
	jmp	___CxxFrameHandler3
text$x	ENDS
?_Init@?$numpunct@D@std@@IAEXABV_Locinfo@2@@Z ENDP	; std::numpunct<char>::_Init
; Function compile flags: /Ogtpy
;	COMDAT ?_Init@?$num_put@DV?$ostreambuf_iterator@DU?$char_traits@D@std@@@std@@@std@@IAEXABV_Locinfo@2@@Z
_TEXT	SEGMENT
?_Init@?$num_put@DV?$ostreambuf_iterator@DU?$char_traits@D@std@@@std@@@std@@IAEXABV_Locinfo@2@@Z PROC ; std::num_put<char,std::ostreambuf_iterator<char,std::char_traits<char> > >::_Init, COMDAT
; _this$ = esi

; 853  : 		{	// initialize from _Locinfo object

	push	ecx

; 854  : 		_Cvt = _Lobj._Getcvt();

	call	__Getcvt
	mov	DWORD PTR [esi+8], eax
	mov	DWORD PTR [esi+12], edx
	pop	ecx

; 855  : 		}

	ret	0
?_Init@?$num_put@DV?$ostreambuf_iterator@DU?$char_traits@D@std@@@std@@@std@@IAEXABV_Locinfo@2@@Z ENDP ; std::num_put<char,std::ostreambuf_iterator<char,std::char_traits<char> > >::_Init
; Function compile flags: /Ogtpy
; File c:\program files\microsoft visual studio 8\vc\include\streambuf
_TEXT	ENDS
;	COMDAT ?_Init@?$basic_streambuf@DU?$char_traits@D@std@@@std@@IAEXXZ
_TEXT	SEGMENT
?_Init@?$basic_streambuf@DU?$char_traits@D@std@@@std@@IAEXXZ PROC ; std::basic_streambuf<char,std::char_traits<char> >::_Init, COMDAT
; _this$ = eax

; 283  : 		_IGfirst = &_Gfirst, _IPfirst = &_Pfirst;
; 284  : 		_IGnext = &_Gnext, _IPnext = &_Pnext;

	lea	edx, DWORD PTR [eax+24]
	mov	DWORD PTR [eax+32], edx
	lea	edx, DWORD PTR [eax+28]
	mov	DWORD PTR [eax+36], edx
	lea	ecx, DWORD PTR [eax+8]
	mov	DWORD PTR [eax+16], ecx

; 285  : 		_IGcount = &_Gcount, _IPcount = &_Pcount;

	lea	edx, DWORD PTR [eax+40]
	mov	DWORD PTR [eax+48], edx
	lea	ecx, DWORD PTR [eax+12]
	mov	DWORD PTR [eax+20], ecx
	lea	edx, DWORD PTR [eax+44]
	mov	DWORD PTR [eax+52], edx

; 286  : 		setp(0, 0), setg(0, 0, 0);

	mov	DWORD PTR [ecx], 0
	mov	ecx, DWORD PTR [eax+36]
	mov	DWORD PTR [ecx], 0
	mov	edx, DWORD PTR [eax+52]
	mov	DWORD PTR [edx], 0
	mov	ecx, DWORD PTR [eax+16]
	mov	DWORD PTR [ecx], 0
	mov	edx, DWORD PTR [eax+32]
	mov	DWORD PTR [edx], 0
	mov	eax, DWORD PTR [eax+48]
	mov	DWORD PTR [eax], 0

; 287  : 		}

	ret	0
?_Init@?$basic_streambuf@DU?$char_traits@D@std@@@std@@IAEXXZ ENDP ; std::basic_streambuf<char,std::char_traits<char> >::_Init
; Function compile flags: /Ogtpy
; File c:\program files\microsoft visual studio 8\vc\include\xlocnum
_TEXT	ENDS
;	COMDAT ??1?$numpunct@D@std@@MAE@XZ
_TEXT	SEGMENT
??1?$numpunct@D@std@@MAE@XZ PROC			; std::numpunct<char>::~numpunct<char>, COMDAT
; _this$ = ecx

; 109  : 		{	// destroy the object

	push	esi
	mov	esi, ecx

; 110  : 		_Tidy();

	mov	eax, DWORD PTR [esi+8]
	push	eax
	mov	DWORD PTR [esi], OFFSET ??_7?$numpunct@D@std@@6B@
	call	??_V@YAXPAX@Z				; operator delete[]
	mov	ecx, DWORD PTR [esi+16]
	push	ecx
	call	??_V@YAXPAX@Z				; operator delete[]
	mov	edx, DWORD PTR [esi+20]
	push	edx
	call	??_V@YAXPAX@Z				; operator delete[]
	add	esp, 12					; 0000000cH

; 111  : 		}

	mov	DWORD PTR [esi], OFFSET ??_7facet@locale@std@@6B@
	pop	esi
	ret	0
??1?$numpunct@D@std@@MAE@XZ ENDP			; std::numpunct<char>::~numpunct<char>
; Function compile flags: /Ogtpy
; File c:\program files\microsoft visual studio 8\vc\include\ostream
_TEXT	ENDS
;	COMDAT ??1_Sentry_base@?$basic_ostream@DU?$char_traits@D@std@@@std@@QAE@XZ
_TEXT	SEGMENT
??1_Sentry_base@?$basic_ostream@DU?$char_traits@D@std@@@std@@QAE@XZ PROC ; std::basic_ostream<char,std::char_traits<char> >::_Sentry_base::~_Sentry_base, COMDAT
; _this$ = eax

; 80   : 			if (_Myostr.rdbuf() != 0)

	mov	eax, DWORD PTR [eax]
	mov	ecx, DWORD PTR [eax]
	mov	edx, DWORD PTR [ecx+4]
	mov	eax, DWORD PTR [edx+eax+40]
	test	eax, eax
	je	SHORT $LN8@Sentry_bas

; 81   : 				_Myostr.rdbuf()->_Unlock();

	lea	ecx, DWORD PTR [eax+4]
	jmp	?_Unlock@_Mutex@std@@QAEXXZ		; std::_Mutex::_Unlock
$LN8@Sentry_bas:

; 82   : 			}

	ret	0
??1_Sentry_base@?$basic_ostream@DU?$char_traits@D@std@@@std@@QAE@XZ ENDP ; std::basic_ostream<char,std::char_traits<char> >::_Sentry_base::~_Sentry_base
; Function compile flags: /Ogtpy
_TEXT	ENDS
;	COMDAT ??0_Sentry_base@?$basic_ostream@DU?$char_traits@D@std@@@std@@QAE@AAV12@@Z
_TEXT	SEGMENT
??0_Sentry_base@?$basic_ostream@DU?$char_traits@D@std@@@std@@QAE@AAV12@@Z PROC ; std::basic_ostream<char,std::char_traits<char> >::_Sentry_base::_Sentry_base, COMDAT
; _this$ = esi
; __Ostr$ = eax

; 73   : 			{	// lock the stream buffer, if there

	mov	DWORD PTR [esi], eax

; 74   : 			if (_Myostr.rdbuf() != 0)

	mov	ecx, DWORD PTR [eax]
	mov	edx, DWORD PTR [ecx+4]
	mov	eax, DWORD PTR [edx+eax+40]
	test	eax, eax
	je	SHORT $LN10@Sentry_bas@2

; 75   : 				_Myostr.rdbuf()->_Lock();

	lea	ecx, DWORD PTR [eax+4]
	call	?_Lock@_Mutex@std@@QAEXXZ		; std::_Mutex::_Lock
$LN10@Sentry_bas@2:

; 76   : 			}

	mov	eax, esi
	ret	0
??0_Sentry_base@?$basic_ostream@DU?$char_traits@D@std@@@std@@QAE@AAV12@@Z ENDP ; std::basic_ostream<char,std::char_traits<char> >::_Sentry_base::_Sentry_base
; Function compile flags: /Ogtpy
_TEXT	ENDS
;	COMDAT ??0?$_Iterator_with_base@Uoutput_iterator_tag@std@@XXXXU_Iterator_base@2@@std@@QAE@XZ
_TEXT	SEGMENT
??0?$_Iterator_with_base@Uoutput_iterator_tag@std@@XXXXU_Iterator_base@2@@std@@QAE@XZ PROC ; std::_Iterator_with_base<std::output_iterator_tag,void,void,void,void,std::_Iterator_base>::_Iterator_with_base<std::output_iterator_tag,void,void,void,void,std::_Iterator_base>, COMDAT
; _this$ = eax
	mov	DWORD PTR [eax], 0
	ret	0
??0?$_Iterator_with_base@Uoutput_iterator_tag@std@@XXXXU_Iterator_base@2@@std@@QAE@XZ ENDP ; std::_Iterator_with_base<std::output_iterator_tag,void,void,void,void,std::_Iterator_base>::_Iterator_with_base<std::output_iterator_tag,void,void,void,void,std::_Iterator_base>
; Function compile flags: /Ogtpy
_TEXT	ENDS
;	COMDAT ??0?$_Outit_with_base@U_Iterator_base@std@@@std@@QAE@XZ
_TEXT	SEGMENT
??0?$_Outit_with_base@U_Iterator_base@std@@@std@@QAE@XZ PROC ; std::_Outit_with_base<std::_Iterator_base>::_Outit_with_base<std::_Iterator_base>, COMDAT
; _this$ = eax
	mov	DWORD PTR [eax], 0
	ret	0
??0?$_Outit_with_base@U_Iterator_base@std@@@std@@QAE@XZ ENDP ; std::_Outit_with_base<std::_Iterator_base>::_Outit_with_base<std::_Iterator_base>
; Function compile flags: /Ogtpy
; File c:\program files\microsoft visual studio 8\vc\include\xutility
_TEXT	ENDS
;	COMDAT ??0?$ostreambuf_iterator@DU?$char_traits@D@std@@@std@@QAE@PAV?$basic_streambuf@DU?$char_traits@D@std@@@1@@Z
_TEXT	SEGMENT
??0?$ostreambuf_iterator@DU?$char_traits@D@std@@@std@@QAE@PAV?$basic_streambuf@DU?$char_traits@D@std@@@1@@Z PROC ; std::ostreambuf_iterator<char,std::char_traits<char> >::ostreambuf_iterator<char,std::char_traits<char> >, COMDAT
; _this$ = eax
; __Sb$ = ecx

; 2176 : 		{	// construct from stream buffer _Sb

	mov	DWORD PTR [eax], 0
	mov	BYTE PTR [eax+4], 0
	mov	DWORD PTR [eax+8], ecx

; 2177 : 		}

	ret	0
??0?$ostreambuf_iterator@DU?$char_traits@D@std@@@std@@QAE@PAV?$basic_streambuf@DU?$char_traits@D@std@@@1@@Z ENDP ; std::ostreambuf_iterator<char,std::char_traits<char> >::ostreambuf_iterator<char,std::char_traits<char> >
; Function compile flags: /Ogtpy
; File c:\program files\microsoft visual studio 8\vc\include\xlocnum
_TEXT	ENDS
;	COMDAT ??1?$num_put@DV?$ostreambuf_iterator@DU?$char_traits@D@std@@@std@@@std@@MAE@XZ
_TEXT	SEGMENT
??1?$num_put@DV?$ostreambuf_iterator@DU?$char_traits@D@std@@@std@@@std@@MAE@XZ PROC ; std::num_put<char,std::ostreambuf_iterator<char,std::char_traits<char> > >::~num_put<char,std::ostreambuf_iterator<char,std::char_traits<char> > >, COMDAT
; _this$ = ecx

; 849  : 		}

	mov	DWORD PTR [ecx], OFFSET ??_7facet@locale@std@@6B@
	ret	0
??1?$num_put@DV?$ostreambuf_iterator@DU?$char_traits@D@std@@@std@@@std@@MAE@XZ ENDP ; std::num_put<char,std::ostreambuf_iterator<char,std::char_traits<char> > >::~num_put<char,std::ostreambuf_iterator<char,std::char_traits<char> > >
; Function compile flags: /Ogtpy
; File c:\program files\microsoft visual studio 8\vc\include\sstream
_TEXT	ENDS
;	COMDAT ?_Tidy@?$basic_stringbuf@DU?$char_traits@D@std@@V?$allocator@D@2@@std@@IAEXXZ
_TEXT	SEGMENT
?_Tidy@?$basic_stringbuf@DU?$char_traits@D@std@@V?$allocator@D@2@@std@@IAEXXZ PROC ; std::basic_stringbuf<char,std::char_traits<char>,std::allocator<char> >::_Tidy, COMDAT
; _this$ = esi

; 298  : 		if (_Mystate & _Allocated)

	test	BYTE PTR [esi+64], 1
	je	SHORT $LN16@Tidy@2

; 299  : 			_Al.deallocate(_Mysb::eback(),
; 300  : 				(_Mysb::pptr() != 0 ? _Mysb::epptr()
; 301  : 					: _Mysb::egptr()) - _Mysb::eback());

	mov	eax, DWORD PTR [esi+16]
	mov	ecx, DWORD PTR [eax]
	push	ecx
	call	??3@YAXPAX@Z				; operator delete
	add	esp, 4
$LN16@Tidy@2:

; 302  : 		_Mysb::setg(0, 0, 0);

	mov	edx, DWORD PTR [esi+16]
	mov	DWORD PTR [edx], 0
	mov	eax, DWORD PTR [esi+32]
	mov	DWORD PTR [eax], 0
	mov	ecx, DWORD PTR [esi+48]
	mov	DWORD PTR [ecx], 0

; 303  : 		_Mysb::setp(0, 0);

	mov	edx, DWORD PTR [esi+20]
	mov	DWORD PTR [edx], 0
	mov	eax, DWORD PTR [esi+36]
	mov	DWORD PTR [eax], 0
	mov	ecx, DWORD PTR [esi+52]
	mov	DWORD PTR [ecx], 0

; 304  : 		_Seekhigh = 0;
; 305  : 		_Mystate &= ~_Allocated;

	and	DWORD PTR [esi+64], -2			; fffffffeH
	mov	DWORD PTR [esi+60], 0

; 306  : 		}

	ret	0
?_Tidy@?$basic_stringbuf@DU?$char_traits@D@std@@V?$allocator@D@2@@std@@IAEXXZ ENDP ; std::basic_stringbuf<char,std::char_traits<char>,std::allocator<char> >::_Tidy
; Function compile flags: /Ogtpy
; File c:\program files\microsoft visual studio 8\vc\include\streambuf
_TEXT	ENDS
;	COMDAT ?sputc@?$basic_streambuf@DU?$char_traits@D@std@@@std@@QAEHD@Z
_TEXT	SEGMENT
?sputc@?$basic_streambuf@DU?$char_traits@D@std@@@std@@QAEHD@Z PROC ; std::basic_streambuf<char,std::char_traits<char> >::sputc, COMDAT
; _this$ = ecx
; __Ch$ = edx

; 162  : 		return (0 < _Pnavail()
; 163  : 			? _Traits::to_int_type(*_Pninc() = _Ch)
; 164  : 			: overflow(_Traits::to_int_type(_Ch)));

	mov	eax, DWORD PTR [ecx+36]
	cmp	DWORD PTR [eax], 0
	je	SHORT $LN3@sputc
	mov	eax, DWORD PTR [ecx+52]
	cmp	DWORD PTR [eax], 0
	jle	SHORT $LN3@sputc
	add	DWORD PTR [eax], -1
	mov	ecx, DWORD PTR [ecx+36]
	mov	eax, DWORD PTR [ecx]
	push	esi
	lea	esi, DWORD PTR [eax+1]
	mov	DWORD PTR [ecx], esi
	mov	BYTE PTR [eax], dl
	movzx	eax, dl
	pop	esi

; 165  : 		}

	ret	0
$LN3@sputc:

; 162  : 		return (0 < _Pnavail()
; 163  : 			? _Traits::to_int_type(*_Pninc() = _Ch)
; 164  : 			: overflow(_Traits::to_int_type(_Ch)));

	mov	eax, DWORD PTR [ecx]
	mov	eax, DWORD PTR [eax+4]
	movzx	edx, dl
	push	edx
	call	eax

; 165  : 		}

	ret	0
?sputc@?$basic_streambuf@DU?$char_traits@D@std@@@std@@QAEHD@Z ENDP ; std::basic_streambuf<char,std::char_traits<char> >::sputc
; Function compile flags: /Ogtpy
; File c:\program files\microsoft visual studio 8\vc\include\ios
_TEXT	ENDS
;	COMDAT ??0?$basic_ios@DU?$char_traits@D@std@@@std@@IAE@XZ
_TEXT	SEGMENT
??0?$basic_ios@DU?$char_traits@D@std@@@std@@IAE@XZ PROC	; std::basic_ios<char,std::char_traits<char> >::basic_ios<char,std::char_traits<char> >, COMDAT
; _this$ = eax

; 146  : 	__CLR_OR_THIS_CALL basic_ios()

	mov	DWORD PTR [eax], OFFSET ??_7?$basic_ios@DU?$char_traits@D@std@@@std@@6B@

; 147  : 		{	// default constructor, do nothing
; 148  : 		}

	ret	0
??0?$basic_ios@DU?$char_traits@D@std@@@std@@IAE@XZ ENDP	; std::basic_ios<char,std::char_traits<char> >::basic_ios<char,std::char_traits<char> >
; Function compile flags: /Ogtpy
; File c:\program files\microsoft visual studio 8\vc\include\vector
_TEXT	ENDS
;	COMDAT ??9?$_Vector_const_iterator@V?$basic_string@DU?$char_traits@D@std@@V?$allocator@D@2@@std@@V?$allocator@V?$basic_string@DU?$char_traits@D@std@@V?$allocator@D@2@@std@@@2@@std@@QBE_NABV01@@Z
_TEXT	SEGMENT
??9?$_Vector_const_iterator@V?$basic_string@DU?$char_traits@D@std@@V?$allocator@D@2@@std@@V?$allocator@V?$basic_string@DU?$char_traits@D@std@@V?$allocator@D@2@@std@@@2@@std@@QBE_NABV01@@Z PROC ; std::_Vector_const_iterator<std::basic_string<char,std::char_traits<char>,std::allocator<char> >,std::allocator<std::basic_string<char,std::char_traits<char>,std::allocator<char> > > >::operator!=, COMDAT
; _this$ = edi
; __Right$ = esi

; 203  : 		return (!(*this == _Right));

	mov	eax, DWORD PTR [edi]
	test	eax, eax
	je	SHORT $LN3@operator@18
	cmp	eax, DWORD PTR [esi]
	je	SHORT $LN4@operator@18
$LN3@operator@18:
	call	__invalid_parameter_noinfo
$LN4@operator@18:
	mov	eax, DWORD PTR [edi+4]
	xor	ecx, ecx
	cmp	eax, DWORD PTR [esi+4]
	setne	cl
	mov	al, cl

; 204  : 		}

	ret	0
??9?$_Vector_const_iterator@V?$basic_string@DU?$char_traits@D@std@@V?$allocator@D@2@@std@@V?$allocator@V?$basic_string@DU?$char_traits@D@std@@V?$allocator@D@2@@std@@@2@@std@@QBE_NABV01@@Z ENDP ; std::_Vector_const_iterator<std::basic_string<char,std::char_traits<char>,std::allocator<char> >,std::allocator<std::basic_string<char,std::char_traits<char>,std::allocator<char> > > >::operator!=
; Function compile flags: /Ogtpy
; File c:\program files\microsoft visual studio 8\vc\include\sstream
_TEXT	ENDS
;	COMDAT ?seekpos@?$basic_stringbuf@DU?$char_traits@D@std@@V?$allocator@D@2@@std@@MAE?AV?$fpos@H@2@V32@H@Z
_TEXT	SEGMENT
___$ReturnUdt$ = 8					; size = 4
__Ptr$ = 12						; size = 24
__Mode$ = 36						; size = 4
?seekpos@?$basic_stringbuf@DU?$char_traits@D@std@@V?$allocator@D@2@@std@@MAE?AV?$fpos@H@2@V32@H@Z PROC ; std::basic_stringbuf<char,std::char_traits<char>,std::allocator<char> >::seekpos, COMDAT
; _this$ = ecx

; 237  : 		streamoff _Off = (streamoff)_Ptr;

	mov	eax, DWORD PTR __Ptr$[esp-4]
	mov	edx, DWORD PTR __Ptr$[esp+4]
	push	ebp
	push	edi

; 238  : 		if (_Mysb::pptr() != 0 && _Seekhigh < _Mysb::pptr())

	mov	edi, DWORD PTR [ecx+36]
	add	edx, eax
	mov	eax, DWORD PTR [edi]
	test	eax, eax
	je	SHORT $LN12@seekpos
	cmp	DWORD PTR [ecx+60], eax
	jae	SHORT $LN12@seekpos

; 239  : 			_Seekhigh = _Mysb::pptr();	// update high-water pointer

	mov	DWORD PTR [ecx+60], eax
$LN12@seekpos:

; 240  : 
; 241  : 		if (_Off == _BADOFF)

	mov	ebp, DWORD PTR ?_BADOFF@std@@3JB	; std::_BADOFF
	cmp	edx, ebp
	je	$LN56@seekpos
	push	ebx

; 242  : 			;
; 243  : 		else if (_Mode & ios_base::in && _Mysb::gptr() != 0)

	mov	bl, BYTE PTR __Mode$[esp+8]
	test	bl, 1
	push	esi
	je	SHORT $LN55@seekpos
	mov	eax, DWORD PTR [ecx+32]
	mov	esi, DWORD PTR [eax]
	test	esi, esi
	je	SHORT $LN55@seekpos

; 244  : 			{	// position within read buffer
; 245  : 			if (0 <= _Off && _Off <= _Seekhigh - _Mysb::eback())

	test	edx, edx
	jl	SHORT $LN4@seekpos
	mov	eax, DWORD PTR [ecx+16]
	mov	eax, DWORD PTR [eax]
	mov	edi, DWORD PTR [ecx+60]
	sub	edi, eax
	cmp	edx, edi
	jg	SHORT $LN4@seekpos

; 246  : 				{	// change read position
; 247  : 				_Mysb::gbump((int)(_Mysb::eback() - _Mysb::gptr() + _Off));

	sub	eax, esi
	mov	esi, DWORD PTR [ecx+48]
	add	eax, edx
	sub	DWORD PTR [esi], eax
	mov	esi, DWORD PTR [ecx+32]
	add	DWORD PTR [esi], eax

; 248  : 				if (_Mode & ios_base::out && _Mysb::pptr() != 0)

	test	bl, 2
	je	SHORT $LN57@seekpos
	mov	edi, DWORD PTR [ecx+36]
	mov	ebx, DWORD PTR [edi]
	test	ebx, ebx
	je	SHORT $LN57@seekpos

; 249  : 					_Mysb::setp(_Mysb::pbase(), _Mysb::gptr(),
; 250  : 						_Mysb::epptr());	// change write position to match

	mov	eax, DWORD PTR [ecx+32]
	mov	esi, DWORD PTR [eax]
	mov	eax, DWORD PTR [ecx+52]
	mov	eax, DWORD PTR [eax]
	add	eax, ebx
	mov	DWORD PTR [edi], esi
	mov	ecx, DWORD PTR [ecx+52]
	sub	eax, esi
	mov	DWORD PTR [ecx], eax

; 251  : 				}
; 252  : 			else
; 253  : 				_Off = _BADOFF;

	jmp	SHORT $LN57@seekpos
$LN55@seekpos:

; 254  : 			}
; 255  : 		else if (_Mode & ios_base::out && _Mysb::pptr() != 0)

	test	bl, 2
	je	SHORT $LN4@seekpos
	mov	edi, DWORD PTR [edi]
	test	edi, edi
	je	SHORT $LN4@seekpos

; 256  : 			{	// position within write buffer
; 257  : 			if (0 <= _Off && _Off <= _Seekhigh - _Mysb::eback())

	test	edx, edx
	jl	SHORT $LN4@seekpos
	mov	eax, DWORD PTR [ecx+16]
	mov	eax, DWORD PTR [eax]
	mov	esi, DWORD PTR [ecx+60]
	sub	esi, eax
	cmp	edx, esi
	jg	SHORT $LN4@seekpos

; 258  : 				_Mysb::pbump((int)(_Mysb::eback()
; 259  : 					- _Mysb::pptr() + _Off));	// change write position

	mov	esi, DWORD PTR [ecx+52]
	sub	eax, edi
	add	eax, edx
	sub	DWORD PTR [esi], eax
	mov	ecx, DWORD PTR [ecx+36]
	add	DWORD PTR [ecx], eax

; 260  : 			else

	jmp	SHORT $LN57@seekpos
$LN4@seekpos:

; 261  : 				_Off = _BADOFF;
; 262  : 			}
; 263  : 		else
; 264  : 			_Off = _BADOFF;

	mov	edx, ebp
$LN57@seekpos:
	pop	esi
	pop	ebx
$LN56@seekpos:

; 265  : 		return (streampos(_Off));

	mov	eax, DWORD PTR ___$ReturnUdt$[esp+4]
	xor	ecx, ecx
	pop	edi
	mov	DWORD PTR [eax], edx
	mov	DWORD PTR [eax+8], ecx
	mov	DWORD PTR [eax+12], ecx
	mov	DWORD PTR [eax+16], ecx
	pop	ebp

; 266  : 		}

	ret	32					; 00000020H
?seekpos@?$basic_stringbuf@DU?$char_traits@D@std@@V?$allocator@D@2@@std@@MAE?AV?$fpos@H@2@V32@H@Z ENDP ; std::basic_stringbuf<char,std::char_traits<char>,std::allocator<char> >::seekpos
; Function compile flags: /Ogtpy
_TEXT	ENDS
;	COMDAT ?seekoff@?$basic_stringbuf@DU?$char_traits@D@std@@V?$allocator@D@2@@std@@MAE?AV?$fpos@H@2@JHH@Z
_TEXT	SEGMENT
___$ReturnUdt$ = 8					; size = 4
__Off$ = 12						; size = 4
__Way$ = 16						; size = 4
__Which$ = 20						; size = 4
?seekoff@?$basic_stringbuf@DU?$char_traits@D@std@@V?$allocator@D@2@@std@@MAE?AV?$fpos@H@2@JHH@Z PROC ; std::basic_stringbuf<char,std::char_traits<char>,std::allocator<char> >::seekoff, COMDAT
; _this$ = ecx

; 191  : 		if (_Mysb::pptr() != 0 && _Seekhigh < _Mysb::pptr())

	mov	edx, DWORD PTR [ecx+36]
	mov	eax, DWORD PTR [edx]
	test	eax, eax
	je	SHORT $LN20@seekoff
	cmp	DWORD PTR [ecx+60], eax
	jae	SHORT $LN20@seekoff

; 192  : 			_Seekhigh = _Mysb::pptr();	// update high-water pointer

	mov	DWORD PTR [ecx+60], eax
$LN20@seekoff:
	push	ebx

; 193  : 
; 194  : 		if (_Which & ios_base::in && _Mysb::gptr() != 0)

	mov	bl, BYTE PTR __Which$[esp]
	test	bl, 1
	push	esi
	push	edi
	je	$LN19@seekoff
	mov	eax, DWORD PTR [ecx+32]
	mov	esi, DWORD PTR [eax]
	test	esi, esi
	je	$LN19@seekoff

; 195  : 			{	// position within read buffer
; 196  : 			if (_Way == ios_base::end)

	mov	eax, DWORD PTR __Way$[esp+8]
	cmp	eax, 2
	mov	edi, DWORD PTR ?_BADOFF@std@@3JB	; std::_BADOFF
	jne	SHORT $LN18@seekoff

; 197  : 				_Off += (off_type)(_Seekhigh - _Mysb::eback());

	mov	edx, DWORD PTR [ecx+16]
	mov	eax, DWORD PTR [ecx+60]
	sub	eax, DWORD PTR [edx]
	mov	edx, DWORD PTR __Off$[esp+8]
	add	edx, eax

; 198  : 			else if (_Way == ios_base::cur

	jmp	SHORT $LN14@seekoff
$LN18@seekoff:

; 199  : 				&& (_Which & ios_base::out) == 0)

	cmp	eax, 1
	jne	SHORT $LN16@seekoff
	test	bl, 2
	jne	SHORT $LN73@seekoff

; 200  : 				_Off += (off_type)(_Mysb::gptr() - _Mysb::eback());

	mov	edx, DWORD PTR [ecx+16]
	mov	eax, esi
	sub	eax, DWORD PTR [edx]
	mov	edx, DWORD PTR __Off$[esp+8]
	add	edx, eax
	jmp	SHORT $LN14@seekoff
$LN16@seekoff:

; 201  : 			else if (_Way != ios_base::beg)

	test	eax, eax
	je	SHORT $LN74@seekoff
$LN73@seekoff:

; 202  : 				_Off = _BADOFF;

	mov	edx, edi
	jmp	SHORT $LN14@seekoff
$LN74@seekoff:
	mov	edx, DWORD PTR __Off$[esp+8]
$LN14@seekoff:

; 203  : 
; 204  : 			if (0 <= _Off && _Off <= _Seekhigh - _Mysb::eback())

	test	edx, edx
	jl	$LN3@seekoff
	mov	eax, DWORD PTR [ecx+16]
	mov	eax, DWORD PTR [eax]
	push	ebp
	mov	ebp, DWORD PTR [ecx+60]
	sub	ebp, eax
	cmp	edx, ebp
	pop	ebp
	jg	$LN3@seekoff

; 205  : 				{	// change read position
; 206  : 				_Mysb::gbump((int)(_Mysb::eback() - _Mysb::gptr() + _Off));

	sub	eax, esi
	mov	esi, DWORD PTR [ecx+48]
	add	eax, edx
	sub	DWORD PTR [esi], eax
	mov	esi, DWORD PTR [ecx+32]
	add	DWORD PTR [esi], eax

; 207  : 				if (_Which & ios_base::out && _Mysb::pptr() != 0)

	test	bl, 2
	je	$LN77@seekoff
	mov	edi, DWORD PTR [ecx+36]
	mov	ebx, DWORD PTR [edi]
	test	ebx, ebx
	je	$LN77@seekoff

; 208  : 					_Mysb::setp(_Mysb::pbase(), _Mysb::gptr(),
; 209  : 						_Mysb::epptr());	// change write position to match

	mov	eax, DWORD PTR [ecx+32]
	mov	esi, DWORD PTR [eax]
	mov	eax, DWORD PTR [ecx+52]
	mov	eax, DWORD PTR [eax]
	add	eax, ebx
	mov	DWORD PTR [edi], esi
	mov	ecx, DWORD PTR [ecx+52]
	sub	eax, esi
	mov	DWORD PTR [ecx], eax

; 210  : 				}
; 211  : 			else

	jmp	SHORT $LN77@seekoff
$LN19@seekoff:

; 212  : 				_Off = _BADOFF;
; 213  : 			}
; 214  : 		else if (_Which & ios_base::out && _Mysb::pptr() != 0)

	test	bl, 2
	je	SHORT $LN9@seekoff
	mov	esi, DWORD PTR [edx]
	test	esi, esi
	je	SHORT $LN9@seekoff

; 215  : 			{	// position within write buffer
; 216  : 			if (_Way == ios_base::end)

	mov	eax, DWORD PTR __Way$[esp+8]
	cmp	eax, 2
	mov	edi, DWORD PTR ?_BADOFF@std@@3JB	; std::_BADOFF
	jne	SHORT $LN8@seekoff

; 217  : 				_Off += (off_type)(_Seekhigh - _Mysb::eback());

	mov	edx, DWORD PTR [ecx+16]
	mov	eax, DWORD PTR [ecx+60]
	sub	eax, DWORD PTR [edx]
	mov	edx, DWORD PTR __Off$[esp+8]
	add	edx, eax
	jmp	SHORT $LN4@seekoff
$LN8@seekoff:

; 218  : 			else if (_Way == ios_base::cur)

	cmp	eax, 1
	jne	SHORT $LN6@seekoff

; 219  : 				_Off += (off_type)(_Mysb::pptr() - _Mysb::eback());

	mov	edx, DWORD PTR [ecx+16]
	mov	eax, esi
	sub	eax, DWORD PTR [edx]
	mov	edx, DWORD PTR __Off$[esp+8]
	add	edx, eax
	jmp	SHORT $LN4@seekoff
$LN6@seekoff:

; 220  : 			else if (_Way != ios_base::beg)

	test	eax, eax

; 221  : 				_Off = _BADOFF;

	mov	edx, edi
	jne	SHORT $LN4@seekoff
	mov	edx, DWORD PTR __Off$[esp+8]
$LN4@seekoff:

; 222  : 
; 223  : 			if (0 <= _Off && _Off <= _Seekhigh - _Mysb::eback())

	test	edx, edx
	jl	SHORT $LN3@seekoff
	mov	eax, DWORD PTR [ecx+16]
	mov	eax, DWORD PTR [eax]
	mov	ebx, DWORD PTR [ecx+60]
	sub	ebx, eax
	cmp	edx, ebx
	jg	SHORT $LN3@seekoff

; 224  : 				_Mysb::pbump((int)(_Mysb::eback()
; 225  : 					- _Mysb::pptr() + _Off));	// change write position

	sub	eax, esi
	mov	esi, DWORD PTR [ecx+52]
	add	eax, edx
	sub	DWORD PTR [esi], eax
	mov	ecx, DWORD PTR [ecx+36]
	add	DWORD PTR [ecx], eax

; 226  : 			else

	jmp	SHORT $LN77@seekoff
$LN3@seekoff:

; 227  : 				_Off = _BADOFF;

	mov	edx, edi

; 228  : 			}
; 229  : 		else

	jmp	SHORT $LN77@seekoff
$LN9@seekoff:

; 230  : 			_Off = _BADOFF;	// neither read nor write buffer selected, fail

	mov	edx, DWORD PTR ?_BADOFF@std@@3JB	; std::_BADOFF
$LN77@seekoff:

; 231  : 		return (pos_type(_Off));

	mov	eax, DWORD PTR ___$ReturnUdt$[esp+8]
	pop	edi
	xor	ecx, ecx
	pop	esi
	mov	DWORD PTR [eax], edx
	mov	DWORD PTR [eax+8], ecx
	mov	DWORD PTR [eax+12], ecx
	mov	DWORD PTR [eax+16], ecx
	pop	ebx

; 232  : 		}

	ret	16					; 00000010H
?seekoff@?$basic_stringbuf@DU?$char_traits@D@std@@V?$allocator@D@2@@std@@MAE?AV?$fpos@H@2@JHH@Z ENDP ; std::basic_stringbuf<char,std::char_traits<char>,std::allocator<char> >::seekoff
; Function compile flags: /Ogtpy
_TEXT	ENDS
;	COMDAT ?underflow@?$basic_stringbuf@DU?$char_traits@D@std@@V?$allocator@D@2@@std@@MAEHXZ
_TEXT	SEGMENT
?underflow@?$basic_stringbuf@DU?$char_traits@D@std@@V?$allocator@D@2@@std@@MAEHXZ PROC ; std::basic_stringbuf<char,std::char_traits<char>,std::allocator<char> >::underflow, COMDAT
; _this$ = ecx

; 171  : 		if (_Mysb::gptr() == 0)

	mov	edx, DWORD PTR [ecx+32]
	push	esi
	mov	esi, DWORD PTR [edx]
	test	esi, esi
	jne	SHORT $LN8@underflow

; 172  : 			return (_Traits::eof());	// no character buffer, fail

	or	eax, -1
	pop	esi

; 184  : 			}
; 185  : 		}

	ret	0
$LN8@underflow:
	push	ebx
	push	edi

; 173  : 		else if (_Mysb::gptr() < _Mysb::egptr())

	mov	edi, DWORD PTR [ecx+48]
	mov	ebx, DWORD PTR [edi]
	mov	eax, esi
	add	ebx, eax
	cmp	eax, ebx
	jae	SHORT $LN6@underflow

; 174  : 			return (_Traits::to_int_type(*_Mysb::gptr()));	// return buffered

	movzx	eax, BYTE PTR [esi]
	pop	edi
	pop	ebx
	pop	esi

; 184  : 			}
; 185  : 		}

	ret	0
$LN6@underflow:

; 175  : 		else if (_Mystate & _Noread || _Mysb::pptr() == 0
; 176  : 			|| _Mysb::pptr() <= _Mysb::gptr() && _Seekhigh <= _Mysb::gptr())

	test	BYTE PTR [ecx+64], 4
	jne	SHORT $LN3@underflow
	mov	eax, DWORD PTR [ecx+36]
	mov	eax, DWORD PTR [eax]
	test	eax, eax
	je	SHORT $LN3@underflow
	cmp	eax, esi
	ja	SHORT $LN4@underflow
	cmp	DWORD PTR [ecx+60], esi
	jbe	SHORT $LN3@underflow
$LN4@underflow:

; 178  : 		else
; 179  : 			{	// extend read buffer into written area, then return buffered
; 180  : 			if (_Seekhigh < _Mysb::pptr())

	cmp	DWORD PTR [ecx+60], eax
	jae	SHORT $LN1@underflow

; 181  : 				_Seekhigh = _Mysb::pptr();

	mov	DWORD PTR [ecx+60], eax
$LN1@underflow:

; 182  : 			_Mysb::setg(_Mysb::eback(), _Mysb::gptr(), _Seekhigh);

	mov	edx, DWORD PTR [edx]
	mov	eax, DWORD PTR [ecx+60]
	sub	eax, edx
	mov	DWORD PTR [edi], eax

; 183  : 			return (_Traits::to_int_type(*_Mysb::gptr()));

	mov	ecx, DWORD PTR [ecx+32]
	mov	edx, DWORD PTR [ecx]
	movzx	eax, BYTE PTR [edx]
	pop	edi
	pop	ebx
	pop	esi

; 184  : 			}
; 185  : 		}

	ret	0
$LN3@underflow:
	pop	edi
	pop	ebx

; 177  : 			return (_Traits::eof());	// can't read, fail

	or	eax, -1
	pop	esi

; 184  : 			}
; 185  : 		}

	ret	0
?underflow@?$basic_stringbuf@DU?$char_traits@D@std@@V?$allocator@D@2@@std@@MAEHXZ ENDP ; std::basic_stringbuf<char,std::char_traits<char>,std::allocator<char> >::underflow
; Function compile flags: /Ogtpy
; File c:\program files\microsoft visual studio 8\vc\include\vector
_TEXT	ENDS
;	COMDAT ??A?$vector@V?$basic_string@DU?$char_traits@D@std@@V?$allocator@D@2@@std@@V?$allocator@V?$basic_string@DU?$char_traits@D@std@@V?$allocator@D@2@@std@@@2@@std@@QAEAAV?$basic_string@DU?$char_traits@D@std@@V?$allocator@D@2@@1@I@Z
_TEXT	SEGMENT
??A?$vector@V?$basic_string@DU?$char_traits@D@std@@V?$allocator@D@2@@std@@V?$allocator@V?$basic_string@DU?$char_traits@D@std@@V?$allocator@D@2@@std@@@2@@std@@QAEAAV?$basic_string@DU?$char_traits@D@std@@V?$allocator@D@2@@1@I@Z PROC ; std::vector<std::basic_string<char,std::char_traits<char>,std::allocator<char> >,std::allocator<std::basic_string<char,std::char_traits<char>,std::allocator<char> > > >::operator[], COMDAT
; _this$ = esi
; __Pos$ = edi

; 752  : 
; 753  :  #if _HAS_ITERATOR_DEBUGGING
; 754  : 		if (size() <= _Pos)
; 755  : 			{
; 756  : 			_DEBUG_ERROR("vector subscript out of range");
; 757  : 			_SCL_SECURE_OUT_OF_RANGE;
; 758  : 			}
; 759  :  #endif /* _HAS_ITERATOR_DEBUGGING */
; 760  : 		_SCL_SECURE_VALIDATE_RANGE(_Pos < size());

	mov	eax, DWORD PTR [esi+4]
	test	eax, eax
	je	SHORT $LN8@operator@19
	mov	ecx, DWORD PTR [esi+8]
	sub	ecx, eax
	mov	eax, -1840700269			; 92492493H
	imul	ecx
	add	edx, ecx
	sar	edx, 4
	mov	eax, edx
	shr	eax, 31					; 0000001fH
	add	eax, edx
	cmp	edi, eax
	jb	SHORT $LN1@operator@19
$LN8@operator@19:
	call	__invalid_parameter_noinfo
$LN1@operator@19:

; 761  : 
; 762  : 		return (*(_Myfirst + _Pos));

	mov	ecx, DWORD PTR [esi+4]
	lea	eax, DWORD PTR [edi*8]
	sub	eax, edi
	lea	eax, DWORD PTR [ecx+eax*4]

; 763  : 		}

	ret	0
??A?$vector@V?$basic_string@DU?$char_traits@D@std@@V?$allocator@D@2@@std@@V?$allocator@V?$basic_string@DU?$char_traits@D@std@@V?$allocator@D@2@@std@@@2@@std@@QAEAAV?$basic_string@DU?$char_traits@D@std@@V?$allocator@D@2@@1@I@Z ENDP ; std::vector<std::basic_string<char,std::char_traits<char>,std::allocator<char> >,std::allocator<std::basic_string<char,std::char_traits<char>,std::allocator<char> > > >::operator[]
; Function compile flags: /Ogtpy
_TEXT	ENDS
;	COMDAT ?empty@?$vector@V?$basic_string@DU?$char_traits@D@std@@V?$allocator@D@2@@std@@V?$allocator@V?$basic_string@DU?$char_traits@D@std@@V?$allocator@D@2@@std@@@2@@std@@QBE_NXZ
_TEXT	SEGMENT
?empty@?$vector@V?$basic_string@DU?$char_traits@D@std@@V?$allocator@D@2@@std@@V?$allocator@V?$basic_string@DU?$char_traits@D@std@@V?$allocator@D@2@@std@@@2@@std@@QBE_NXZ PROC ; std::vector<std::basic_string<char,std::char_traits<char>,std::allocator<char> >,std::allocator<std::basic_string<char,std::char_traits<char>,std::allocator<char> > > >::empty, COMDAT
; _this$ = ecx

; 713  : 		return (size() == 0);

	mov	eax, DWORD PTR [ecx+4]
	test	eax, eax
	jne	SHORT $LN5@empty
	xor	ecx, ecx
	test	eax, eax
	sete	cl
	mov	al, cl

; 714  : 		}

	ret	0

; 713  : 		return (size() == 0);

$LN5@empty:
	mov	ecx, DWORD PTR [ecx+8]
	sub	ecx, eax
	mov	eax, -1840700269			; 92492493H
	imul	ecx
	add	edx, ecx
	sar	edx, 4
	mov	eax, edx
	shr	eax, 31					; 0000001fH
	add	eax, edx
	xor	ecx, ecx
	test	eax, eax
	sete	cl
	mov	al, cl

; 714  : 		}

	ret	0
?empty@?$vector@V?$basic_string@DU?$char_traits@D@std@@V?$allocator@D@2@@std@@V?$allocator@V?$basic_string@DU?$char_traits@D@std@@V?$allocator@D@2@@std@@@2@@std@@QBE_NXZ ENDP ; std::vector<std::basic_string<char,std::char_traits<char>,std::allocator<char> >,std::allocator<std::basic_string<char,std::char_traits<char>,std::allocator<char> > > >::empty
; Function compile flags: /Ogtpy
; File c:\program files\microsoft visual studio 8\vc\include\streambuf
_TEXT	ENDS
;	COMDAT ?uflow@?$basic_streambuf@DU?$char_traits@D@std@@@std@@MAEHXZ
_TEXT	SEGMENT
?uflow@?$basic_streambuf@DU?$char_traits@D@std@@@std@@MAEHXZ PROC ; std::basic_streambuf<char,std::char_traits<char> >::uflow, COMDAT
; _this$ = ecx

; 318  : 		{	// get a character from stream, point past it

	push	esi
	mov	esi, ecx

; 319  : 		return (_Traits::eq_int_type(_Traits::eof(), underflow())
; 320  : 			? _Traits::eof() : _Traits::to_int_type(*_Gninc()));

	mov	eax, DWORD PTR [esi]
	mov	edx, DWORD PTR [eax+16]
	call	edx
	cmp	eax, -1
	jne	SHORT $LN3@uflow
	or	eax, eax
	pop	esi

; 321  : 		}

	ret	0
$LN3@uflow:

; 319  : 		return (_Traits::eq_int_type(_Traits::eof(), underflow())
; 320  : 			? _Traits::eof() : _Traits::to_int_type(*_Gninc()));

	mov	eax, DWORD PTR [esi+48]
	add	DWORD PTR [eax], -1
	mov	eax, DWORD PTR [esi+32]
	mov	ecx, DWORD PTR [eax]
	lea	edx, DWORD PTR [ecx+1]
	mov	DWORD PTR [eax], edx
	movzx	eax, BYTE PTR [ecx]
	pop	esi

; 321  : 		}

	ret	0
?uflow@?$basic_streambuf@DU?$char_traits@D@std@@@std@@MAEHXZ ENDP ; std::basic_streambuf<char,std::char_traits<char> >::uflow
; Function compile flags: /Ogtpy
_TEXT	ENDS
;	COMDAT ?underflow@?$basic_streambuf@DU?$char_traits@D@std@@@std@@MAEHXZ
_TEXT	SEGMENT
?underflow@?$basic_streambuf@DU?$char_traits@D@std@@@std@@MAEHXZ PROC ; std::basic_streambuf<char,std::char_traits<char> >::underflow, COMDAT
; _this$ = ecx

; 314  : 		return (_Traits::eof());

	or	eax, -1

; 315  : 		}

	ret	0
?underflow@?$basic_streambuf@DU?$char_traits@D@std@@@std@@MAEHXZ ENDP ; std::basic_streambuf<char,std::char_traits<char> >::underflow
; Function compile flags: /Ogtpy
_TEXT	ENDS
;	COMDAT ?pbackfail@?$basic_streambuf@DU?$char_traits@D@std@@@std@@MAEHH@Z
_TEXT	SEGMENT
___formal$ = 8						; size = 4
?pbackfail@?$basic_streambuf@DU?$char_traits@D@std@@@std@@MAEHH@Z PROC ; std::basic_streambuf<char,std::char_traits<char> >::pbackfail, COMDAT
; _this$ = ecx

; 304  : 		return (_Traits::eof());

	or	eax, -1

; 305  : 		}

	ret	4
?pbackfail@?$basic_streambuf@DU?$char_traits@D@std@@@std@@MAEHH@Z ENDP ; std::basic_streambuf<char,std::char_traits<char> >::pbackfail
; Function compile flags: /Ogtpy
_TEXT	ENDS
;	COMDAT ?overflow@?$basic_streambuf@DU?$char_traits@D@std@@@std@@MAEHH@Z
_TEXT	SEGMENT
___formal$ = 8						; size = 4
?overflow@?$basic_streambuf@DU?$char_traits@D@std@@@std@@MAEHH@Z PROC ; std::basic_streambuf<char,std::char_traits<char> >::overflow, COMDAT
; _this$ = ecx

; 299  : 		return (_Traits::eof());

	or	eax, -1

; 300  : 		}

	ret	4
?overflow@?$basic_streambuf@DU?$char_traits@D@std@@@std@@MAEHH@Z ENDP ; std::basic_streambuf<char,std::char_traits<char> >::overflow
; Function compile flags: /Ogtpy
; File c:\program files\microsoft visual studio 8\vc\include\ios
_TEXT	ENDS
;	COMDAT ??1?$basic_ios@DU?$char_traits@D@std@@@std@@UAE@XZ
_TEXT	SEGMENT
??1?$basic_ios@DU?$char_traits@D@std@@@std@@UAE@XZ PROC	; std::basic_ios<char,std::char_traits<char> >::~basic_ios<char,std::char_traits<char> >, COMDAT
; _this$ = ecx

; 39   : 		}

	push	ecx
	mov	DWORD PTR [ecx], OFFSET ??_7ios_base@std@@6B@
	call	?_Ios_base_dtor@ios_base@std@@CAXPAV12@@Z ; std::ios_base::_Ios_base_dtor
	pop	ecx
	ret	0
??1?$basic_ios@DU?$char_traits@D@std@@@std@@UAE@XZ ENDP	; std::basic_ios<char,std::char_traits<char> >::~basic_ios<char,std::char_traits<char> >
_TEXT	ENDS
PUBLIC	?hasCommentForValue@StyledWriter@Json@@AAE_NABVValue@2@@Z ; Json::StyledWriter::hasCommentForValue
; Function compile flags: /Ogtpy
; File f:\cygwin\home\charles\gusale\gusale\lib\jsoncpp-src-0.5.0\src\lib_json\json_writer.cpp
;	COMDAT ?hasCommentForValue@StyledWriter@Json@@AAE_NABVValue@2@@Z
_TEXT	SEGMENT
?hasCommentForValue@StyledWriter@Json@@AAE_NABVValue@2@@Z PROC ; Json::StyledWriter::hasCommentForValue, COMDAT
; _value$ = eax

; 511  :    return value.hasComment( commentBefore )
; 512  :           ||  value.hasComment( commentAfterOnSameLine )
; 513  :           ||  value.hasComment( commentAfter );

	mov	eax, DWORD PTR [eax+12]
	test	eax, eax
	je	SHORT $LN15@hasComment@2
	cmp	DWORD PTR [eax], 0
	jne	SHORT $LN3@hasComment@2
	test	eax, eax
	je	SHORT $LN15@hasComment@2
	cmp	DWORD PTR [eax+4], 0
	jne	SHORT $LN3@hasComment@2
	test	eax, eax
	je	SHORT $LN15@hasComment@2
	cmp	DWORD PTR [eax+8], 0
	jne	SHORT $LN3@hasComment@2
$LN15@hasComment@2:
	xor	eax, eax

; 514  : }

	ret	0
$LN3@hasComment@2:

; 511  :    return value.hasComment( commentBefore )
; 512  :           ||  value.hasComment( commentAfterOnSameLine )
; 513  :           ||  value.hasComment( commentAfter );

	mov	eax, 1

; 514  : }

	ret	0
?hasCommentForValue@StyledWriter@Json@@AAE_NABVValue@2@@Z ENDP ; Json::StyledWriter::hasCommentForValue
; Function compile flags: /Ogtpy
_TEXT	ENDS
;	COMDAT ??_GWriter@Json@@UAEPAXI@Z
_TEXT	SEGMENT
___flags$ = 8						; size = 4
??_GWriter@Json@@UAEPAXI@Z PROC				; Json::Writer::`scalar deleting destructor', COMDAT
; _this$ = ecx
	test	BYTE PTR ___flags$[esp-4], 1
	push	esi
	mov	esi, ecx
	mov	DWORD PTR [esi], OFFSET ??_7Writer@Json@@6B@
	je	SHORT $LN6@scalar
	push	esi
	call	??3@YAXPAX@Z				; operator delete
	add	esp, 4
$LN6@scalar:
	mov	eax, esi
	pop	esi
	ret	4
??_GWriter@Json@@UAEPAXI@Z ENDP				; Json::Writer::`scalar deleting destructor'
; Function compile flags: /Ogtpy
_TEXT	ENDS
;	COMDAT ?containsControlCharacter@Json@@YA_NPBD@Z
_TEXT	SEGMENT
?containsControlCharacter@Json@@YA_NPBD@Z PROC		; Json::containsControlCharacter, COMDAT
; _str$ = ecx

; 23   :    while ( *str ) 

	movzx	eax, BYTE PTR [ecx]
	test	al, al
	je	SHORT $LN2@containsCo
$LL3@containsCo:

; 24   :    {
; 25   :       if ( isControlCharacter( *(str++) ) )

	sub	al, 1
	mov	dl, 30					; 0000001eH
	cmp	dl, al
	sbb	eax, eax
	add	eax, 1
	add	ecx, 1
	test	al, al
	jne	SHORT $LN11@containsCo
	mov	al, BYTE PTR [ecx]
	test	al, al
	jne	SHORT $LL3@containsCo
$LN2@containsCo:

; 27   :    }
; 28   :    return false;

	xor	al, al

; 29   : }

	ret	0
$LN11@containsCo:

; 26   :          return true;

	mov	al, 1

; 29   : }

	ret	0
?containsControlCharacter@Json@@YA_NPBD@Z ENDP		; Json::containsControlCharacter
; Function compile flags: /Ogtpy
; File c:\program files\microsoft visual studio 8\vc\include\ios
_TEXT	ENDS
;	COMDAT ?uppercase@std@@YAAAVios_base@1@AAV21@@Z
_TEXT	SEGMENT
__Iosbase$ = 8						; size = 4
?uppercase@std@@YAAAVios_base@1@AAV21@@Z PROC		; std::uppercase, COMDAT

; 299  : 	_Iosbase.setf(ios_base::uppercase);

	mov	eax, DWORD PTR __Iosbase$[esp-4]
	or	DWORD PTR [eax+16], 4

; 300  : 	return (_Iosbase);
; 301  : 	}

	ret	0
?uppercase@std@@YAAAVios_base@1@AAV21@@Z ENDP		; std::uppercase
; Function compile flags: /Ogtpy
_TEXT	ENDS
;	COMDAT ?hex@std@@YAAAVios_base@1@AAV21@@Z
_TEXT	SEGMENT
__Iosbase$ = 8						; size = 4
?hex@std@@YAAAVios_base@1@AAV21@@Z PROC			; std::hex, COMDAT

; 191  : 	_Iosbase.setf(ios_base::hex, ios_base::basefield);

	mov	eax, DWORD PTR __Iosbase$[esp-4]
	mov	ecx, DWORD PTR [eax+16]
	and	ecx, -1537				; fffff9ffH
	or	ecx, 2048				; 00000800H
	mov	DWORD PTR [eax+16], ecx

; 192  : 	return (_Iosbase);
; 193  : 	}

	ret	0
?hex@std@@YAAAVios_base@1@AAV21@@Z ENDP			; std::hex
; Function compile flags: /Ogtpy
_TEXT	ENDS
;	COMDAT ??_Gios_base@std@@UAEPAXI@Z
_TEXT	SEGMENT
___flags$ = 8						; size = 4
??_Gios_base@std@@UAEPAXI@Z PROC			; std::ios_base::`scalar deleting destructor', COMDAT
; _this$ = ecx
	push	esi
	mov	esi, ecx
	push	esi
	mov	DWORD PTR [esi], OFFSET ??_7ios_base@std@@6B@
	call	?_Ios_base_dtor@ios_base@std@@CAXPAV12@@Z ; std::ios_base::_Ios_base_dtor
	add	esp, 4
	test	BYTE PTR ___flags$[esp], 1
	je	SHORT $LN6@scalar@2
	push	esi
	call	??3@YAXPAX@Z				; operator delete
	add	esp, 4
$LN6@scalar@2:
	mov	eax, esi
	pop	esi
	ret	4
??_Gios_base@std@@UAEPAXI@Z ENDP			; std::ios_base::`scalar deleting destructor'
; Function compile flags: /Ogtpy
; File c:\program files\microsoft visual studio 8\vc\include\xlocale
_TEXT	ENDS
;	COMDAT ??0locale@std@@QAE@XZ
_TEXT	SEGMENT
__Lock$31152 = -4					; size = 4
??0locale@std@@QAE@XZ PROC				; std::locale::locale, COMDAT
; _this$ = edi

; 308  : 		{	// construct from current locale

	push	ecx
	push	esi
	call	?_Init@locale@std@@CAPAV_Locimp@12@XZ	; std::locale::_Init
	mov	DWORD PTR [edi], eax

; 309  : 		_Getgloballocale()->_Incref();

	call	?_Getgloballocale@locale@std@@CAPAV_Locimp@12@XZ ; std::locale::_Getgloballocale
	push	0
	lea	ecx, DWORD PTR __Lock$31152[esp+12]
	mov	esi, eax
	call	??0_Lockit@std@@QAE@H@Z			; std::_Lockit::_Lockit
	mov	eax, DWORD PTR [esi+4]
	cmp	eax, -1
	jae	SHORT $LN3@locale
	add	eax, 1
	mov	DWORD PTR [esi+4], eax
$LN3@locale:
	lea	ecx, DWORD PTR __Lock$31152[esp+8]
	call	??1_Lockit@std@@QAE@XZ			; std::_Lockit::~_Lockit

; 310  : 		}

	mov	eax, edi
	pop	esi
	pop	ecx
	ret	0
??0locale@std@@QAE@XZ ENDP				; std::locale::locale
; Function compile flags: /Ogtpy
; File c:\program files\microsoft visual studio 8\vc\include\iosfwd
_TEXT	ENDS
;	COMDAT ?not_eof@?$char_traits@D@std@@SAHABH@Z
_TEXT	SEGMENT
?not_eof@?$char_traits@D@std@@SAHABH@Z PROC		; std::char_traits<char>::not_eof, COMDAT

; 515  : 		return (_Meta != eof() ? _Meta : !eof());

	xor	eax, eax

; 516  : 		}

	ret	0
?not_eof@?$char_traits@D@std@@SAHABH@Z ENDP		; std::char_traits<char>::not_eof
; Function compile flags: /Ogtpy
; File c:\program files\microsoft visual studio 8\vc\include\xutility
;	COMDAT ??4?$ostreambuf_iterator@DU?$char_traits@D@std@@@std@@QAEAAV01@D@Z
_TEXT	SEGMENT
??4?$ostreambuf_iterator@DU?$char_traits@D@std@@@std@@QAEAAV01@D@Z PROC ; std::ostreambuf_iterator<char,std::char_traits<char> >::operator=, COMDAT
; _this$ = esi
; __Right$ = edx

; 2186 : 		if (_Strbuf == 0
; 2187 : 			|| traits_type::eq_int_type(_Traits::eof(),
; 2188 : 				_Strbuf->sputc(_Right)))

	mov	ecx, DWORD PTR [esi+8]
	test	ecx, ecx
	je	SHORT $LN1@operator@22
	mov	eax, DWORD PTR [ecx+36]
	cmp	DWORD PTR [eax], 0
	je	SHORT $LN7@operator@22
	mov	eax, DWORD PTR [ecx+52]
	cmp	DWORD PTR [eax], 0
	jle	SHORT $LN7@operator@22
	add	DWORD PTR [eax], -1
	mov	ecx, DWORD PTR [ecx+36]
	mov	eax, DWORD PTR [ecx]
	push	edi
	lea	edi, DWORD PTR [eax+1]
	mov	DWORD PTR [ecx], edi
	mov	BYTE PTR [eax], dl
	movzx	eax, dl
	pop	edi
	jmp	SHORT $LN8@operator@22
$LN7@operator@22:
	mov	eax, DWORD PTR [ecx]
	mov	eax, DWORD PTR [eax+4]
	movzx	edx, dl
	push	edx
	call	eax
$LN8@operator@22:
	cmp	eax, -1
	jne	SHORT $LN23@operator@22
$LN1@operator@22:

; 2189 : 			_Failed = true;

	mov	BYTE PTR [esi+4], 1
$LN23@operator@22:

; 2190 : 		return (*this);

	mov	eax, esi

; 2191 : 		}

	ret	0
??4?$ostreambuf_iterator@DU?$char_traits@D@std@@@std@@QAEAAV01@D@Z ENDP ; std::ostreambuf_iterator<char,std::char_traits<char> >::operator=
; Function compile flags: /Ogtpy
; File c:\program files\microsoft visual studio 8\vc\include\xlocnum
_TEXT	ENDS
;	COMDAT ?_Putc@?$num_put@DV?$ostreambuf_iterator@DU?$char_traits@D@std@@@std@@@std@@ABA?AV?$ostreambuf_iterator@DU?$char_traits@D@std@@@2@V32@PBDI@Z
_TEXT	SEGMENT
___$ReturnUdt$ = 8					; size = 4
__Dest$ = 12						; size = 12
__Ptr$ = 24						; size = 4
?_Putc@?$num_put@DV?$ostreambuf_iterator@DU?$char_traits@D@std@@@std@@@std@@ABA?AV?$ostreambuf_iterator@DU?$char_traits@D@std@@@2@V32@PBDI@Z PROC ; std::num_put<char,std::ostreambuf_iterator<char,std::char_traits<char> > >::_Putc, COMDAT
; __Count$ = eax

; 1322 : 		{	// put char sequence [_Ptr, _Ptr + _Count) to _Dest

	push	ebx
	mov	ebx, DWORD PTR ___$ReturnUdt$[esp]
	push	ebp
	mov	ebp, DWORD PTR __Ptr$[esp+4]
	push	esi

; 1323 : 		for (; 0 < _Count; --_Count, ++_Dest, ++_Ptr)

	mov	esi, DWORD PTR __Dest$[esp+16]
	push	edi
	mov	edi, eax
	test	edi, edi
	jbe	SHORT $LN1@Putc
$LL3@Putc:

; 1324 : 			*_Dest = _MAKLOCCHR(_Elem, *_Ptr, _Cvt);

	test	esi, esi
	je	SHORT $LN12@Putc
	mov	eax, DWORD PTR [esi+36]
	cmp	DWORD PTR [eax], 0
	mov	dl, BYTE PTR [ebp]
	je	SHORT $LN18@Putc
	mov	ecx, DWORD PTR [esi+52]
	cmp	DWORD PTR [ecx], 0
	jle	SHORT $LN18@Putc
	mov	eax, ecx
	add	DWORD PTR [eax], -1
	mov	eax, DWORD PTR [esi+36]
	mov	ecx, DWORD PTR [eax]
	lea	ebx, DWORD PTR [ecx+1]
	mov	DWORD PTR [eax], ebx
	mov	ebx, DWORD PTR ___$ReturnUdt$[esp+12]
	mov	BYTE PTR [ecx], dl
	movzx	eax, dl
	jmp	SHORT $LN19@Putc
$LN18@Putc:
	mov	eax, DWORD PTR [esi]
	movzx	ecx, dl
	mov	edx, DWORD PTR [eax+4]
	push	ecx
	mov	ecx, esi
	call	edx
$LN19@Putc:
	cmp	eax, -1
	jne	SHORT $LN2@Putc
$LN12@Putc:
	mov	BYTE PTR __Dest$[esp+16], 1
$LN2@Putc:

; 1323 : 		for (; 0 < _Count; --_Count, ++_Dest, ++_Ptr)

	sub	edi, 1
	add	ebp, 1
	test	edi, edi
	ja	SHORT $LL3@Putc
$LN1@Putc:

; 1325 : 		return (_Dest);

	mov	eax, DWORD PTR __Dest$[esp+12]
	mov	ecx, DWORD PTR __Dest$[esp+16]
	mov	DWORD PTR [ebx], eax
	pop	edi
	mov	DWORD PTR [ebx+4], ecx
	mov	DWORD PTR [ebx+8], esi
	pop	esi
	pop	ebp
	mov	eax, ebx
	pop	ebx

; 1326 : 		}

	ret	0
?_Putc@?$num_put@DV?$ostreambuf_iterator@DU?$char_traits@D@std@@@std@@@std@@ABA?AV?$ostreambuf_iterator@DU?$char_traits@D@std@@@2@V32@PBDI@Z ENDP ; std::num_put<char,std::ostreambuf_iterator<char,std::char_traits<char> > >::_Putc
; Function compile flags: /Ogtpy
_TEXT	ENDS
;	COMDAT ??_G?$numpunct@D@std@@MAEPAXI@Z
_TEXT	SEGMENT
___flags$ = 8						; size = 4
??_G?$numpunct@D@std@@MAEPAXI@Z PROC			; std::numpunct<char>::`scalar deleting destructor', COMDAT
; _this$ = ecx
	push	esi
	mov	esi, ecx
	mov	eax, DWORD PTR [esi+8]
	push	eax
	mov	DWORD PTR [esi], OFFSET ??_7?$numpunct@D@std@@6B@
	call	??_V@YAXPAX@Z				; operator delete[]
	mov	ecx, DWORD PTR [esi+16]
	push	ecx
	call	??_V@YAXPAX@Z				; operator delete[]
	mov	edx, DWORD PTR [esi+20]
	push	edx
	call	??_V@YAXPAX@Z				; operator delete[]
	add	esp, 12					; 0000000cH
	test	BYTE PTR ___flags$[esp], 1
	mov	DWORD PTR [esi], OFFSET ??_7facet@locale@std@@6B@
	je	SHORT $LN10@scalar@6
	push	esi
	call	??3@YAXPAX@Z				; operator delete
	add	esp, 4
$LN10@scalar@6:
	mov	eax, esi
	pop	esi
	ret	4
??_G?$numpunct@D@std@@MAEPAXI@Z ENDP			; std::numpunct<char>::`scalar deleting destructor'
; Function compile flags: /Ogtpy
_TEXT	ENDS
;	COMDAT ?_Rep@?$num_put@DV?$ostreambuf_iterator@DU?$char_traits@D@std@@@std@@@std@@ABA?AV?$ostreambuf_iterator@DU?$char_traits@D@std@@@2@V32@DI@Z
_TEXT	SEGMENT
___$ReturnUdt$ = 8					; size = 4
__Dest$ = 12						; size = 12
?_Rep@?$num_put@DV?$ostreambuf_iterator@DU?$char_traits@D@std@@@std@@@std@@ABA?AV?$ostreambuf_iterator@DU?$char_traits@D@std@@@2@V32@DI@Z PROC ; std::num_put<char,std::ostreambuf_iterator<char,std::char_traits<char> > >::_Rep, COMDAT
; __Ch$ = ebx
; __Count$ = eax

; 1349 : 		{	// put _Count * _Ch to _Dest

	push	ebp
	mov	ebp, DWORD PTR ___$ReturnUdt$[esp]
	push	esi

; 1350 : 		for (; 0 < _Count; --_Count, ++_Dest)

	mov	esi, DWORD PTR __Dest$[esp+12]
	push	edi
	mov	edi, eax
	test	edi, edi
	jbe	SHORT $LN1@Rep
$LL35@Rep:

; 1351 : 			*_Dest = _Ch;

	test	esi, esi
	je	SHORT $LN10@Rep
	mov	eax, DWORD PTR [esi+36]
	cmp	DWORD PTR [eax], 0
	je	SHORT $LN16@Rep
	mov	ecx, DWORD PTR [esi+52]
	cmp	DWORD PTR [ecx], 0
	jle	SHORT $LN16@Rep
	mov	eax, ecx
	add	DWORD PTR [eax], -1
	mov	eax, DWORD PTR [esi+36]
	mov	ecx, DWORD PTR [eax]
	lea	edx, DWORD PTR [ecx+1]
	mov	DWORD PTR [eax], edx
	mov	BYTE PTR [ecx], bl
	movzx	eax, bl
	jmp	SHORT $LN17@Rep
$LN16@Rep:
	mov	eax, DWORD PTR [esi]
	mov	edx, DWORD PTR [eax+4]
	movzx	ecx, bl
	push	ecx
	mov	ecx, esi
	call	edx
$LN17@Rep:
	cmp	eax, -1
	jne	SHORT $LN2@Rep
$LN10@Rep:
	mov	BYTE PTR __Dest$[esp+12], 1
$LN2@Rep:

; 1350 : 		for (; 0 < _Count; --_Count, ++_Dest)

	sub	edi, 1
	jne	SHORT $LL35@Rep
$LN1@Rep:

; 1352 : 		return (_Dest);

	mov	eax, DWORD PTR __Dest$[esp+8]
	mov	ecx, DWORD PTR __Dest$[esp+12]
	mov	DWORD PTR [ebp], eax
	mov	DWORD PTR [ebp+4], ecx
	pop	edi
	mov	DWORD PTR [ebp+8], esi
	pop	esi
	mov	eax, ebp
	pop	ebp

; 1353 : 		}

	ret	0
?_Rep@?$num_put@DV?$ostreambuf_iterator@DU?$char_traits@D@std@@@std@@@std@@ABA?AV?$ostreambuf_iterator@DU?$char_traits@D@std@@@2@V32@DI@Z ENDP ; std::num_put<char,std::ostreambuf_iterator<char,std::char_traits<char> > >::_Rep
; Function compile flags: /Ogtpy
_TEXT	ENDS
;	COMDAT ?_Put@?$num_put@DV?$ostreambuf_iterator@DU?$char_traits@D@std@@@std@@@std@@ABA?AV?$ostreambuf_iterator@DU?$char_traits@D@std@@@2@V32@PBDI@Z
_TEXT	SEGMENT
___$ReturnUdt$ = 8					; size = 4
__Dest$ = 12						; size = 12
__Ptr$ = 24						; size = 4
?_Put@?$num_put@DV?$ostreambuf_iterator@DU?$char_traits@D@std@@@std@@@std@@ABA?AV?$ostreambuf_iterator@DU?$char_traits@D@std@@@2@V32@PBDI@Z PROC ; std::num_put<char,std::ostreambuf_iterator<char,std::char_traits<char> > >::_Put, COMDAT
; __Count$ = eax

; 1314 : 		{	// put [_Ptr, _Ptr + _Count) to _Dest

	push	ebx
	mov	ebx, DWORD PTR ___$ReturnUdt$[esp]
	push	ebp
	mov	ebp, DWORD PTR __Ptr$[esp+4]
	push	esi

; 1315 : 		for (; 0 < _Count; --_Count, ++_Dest, ++_Ptr)

	mov	esi, DWORD PTR __Dest$[esp+16]
	push	edi
	mov	edi, eax
	test	edi, edi
	jbe	SHORT $LN1@Put
$LL3@Put:

; 1316 : 			*_Dest = *_Ptr;

	test	esi, esi
	je	SHORT $LN10@Put
	mov	eax, DWORD PTR [esi+36]
	cmp	DWORD PTR [eax], 0
	mov	dl, BYTE PTR [ebp]
	je	SHORT $LN16@Put
	mov	ecx, DWORD PTR [esi+52]
	cmp	DWORD PTR [ecx], 0
	jle	SHORT $LN16@Put
	mov	eax, ecx
	add	DWORD PTR [eax], -1
	mov	eax, DWORD PTR [esi+36]
	mov	ecx, DWORD PTR [eax]
	lea	ebx, DWORD PTR [ecx+1]
	mov	DWORD PTR [eax], ebx
	mov	ebx, DWORD PTR ___$ReturnUdt$[esp+12]
	mov	BYTE PTR [ecx], dl
	movzx	eax, dl
	jmp	SHORT $LN17@Put
$LN16@Put:
	mov	eax, DWORD PTR [esi]
	movzx	ecx, dl
	mov	edx, DWORD PTR [eax+4]
	push	ecx
	mov	ecx, esi
	call	edx
$LN17@Put:
	cmp	eax, -1
	jne	SHORT $LN2@Put
$LN10@Put:
	mov	BYTE PTR __Dest$[esp+16], 1
$LN2@Put:

; 1315 : 		for (; 0 < _Count; --_Count, ++_Dest, ++_Ptr)

	sub	edi, 1
	add	ebp, 1
	test	edi, edi
	ja	SHORT $LL3@Put
$LN1@Put:

; 1317 : 		return (_Dest);

	mov	eax, DWORD PTR __Dest$[esp+12]
	mov	ecx, DWORD PTR __Dest$[esp+16]
	mov	DWORD PTR [ebx], eax
	pop	edi
	mov	DWORD PTR [ebx+4], ecx
	mov	DWORD PTR [ebx+8], esi
	pop	esi
	pop	ebp
	mov	eax, ebx
	pop	ebx

; 1318 : 		}

	ret	0
?_Put@?$num_put@DV?$ostreambuf_iterator@DU?$char_traits@D@std@@@std@@@std@@ABA?AV?$ostreambuf_iterator@DU?$char_traits@D@std@@@2@V32@PBDI@Z ENDP ; std::num_put<char,std::ostreambuf_iterator<char,std::char_traits<char> > >::_Put
; Function compile flags: /Ogtpy
; File c:\program files\microsoft visual studio 8\vc\include\sstream
_TEXT	ENDS
;	COMDAT ?_Init@?$basic_stringbuf@DU?$char_traits@D@std@@V?$allocator@D@2@@std@@IAEXPBDIH@Z
_TEXT	SEGMENT
?_Init@?$basic_stringbuf@DU?$char_traits@D@std@@V?$allocator@D@2@@std@@IAEXPBDIH@Z PROC ; std::basic_stringbuf<char,std::char_traits<char>,std::allocator<char> >::_Init, COMDAT
; _this$ = esi
; __Count$ = ebx

; 271  : 		_Seekhigh = 0;
; 272  : 		_Mystate = _State;
; 273  : 
; 274  : 		if (_Count != 0
; 275  : 			&& (_Mystate & (_Noread | _Constant)) != (_Noread | _Constant))

	mov	eax, DWORD PTR [esi+64]
	and	eax, 6
	cmp	al, 6
	je	SHORT $LN9@Init@2
	push	edi

; 276  : 			{	// finite buffer that can be read or written, set it up
; 277  : 			_Elem *_Pnew = _Al.allocate(_Count);

	push	ebx
	lea	ecx, DWORD PTR [esi+68]
	call	?allocate@?$allocator@D@std@@QAEPADI@Z	; std::allocator<char>::allocate

; 278  : 			_Traits_helper::copy_s<_Traits>(_Pnew, _Count, _Ptr, _Count);

	push	ebx
	push	0
	mov	edi, eax
	push	ebx
	push	edi
	call	_memcpy_s
	add	esp, 16					; 00000010H

; 279  : 			_Seekhigh = _Pnew + _Count;
; 280  : 
; 281  : 			if (!(_Mystate & _Noread))

	test	BYTE PTR [esi+64], 4
	lea	eax, DWORD PTR [edi+ebx]
	mov	DWORD PTR [esi+60], eax
	jne	SHORT $LN21@Init@2

; 282  : 				_Mysb::setg(_Pnew, _Pnew,
; 283  : 					_Pnew + _Count);	// setup read buffer

	mov	ecx, DWORD PTR [esi+16]
	mov	DWORD PTR [ecx], edi
	mov	edx, DWORD PTR [esi+32]
	mov	DWORD PTR [edx], edi
	mov	ecx, DWORD PTR [esi+48]
	mov	DWORD PTR [ecx], ebx
$LN21@Init@2:

; 284  : 			if (!(_Mystate & _Constant))

	mov	ecx, DWORD PTR [esi+64]
	test	cl, 2
	jne	SHORT $LN27@Init@2

; 285  : 				{	// setup write buffer, and maybe read buffer
; 286  : 				_Mysb::setp(_Pnew,
; 287  : 					(_Mystate & _Atend) ? _Pnew + _Count : _Pnew,
; 288  : 					_Pnew + _Count);

	test	cl, 16					; 00000010H
	jne	SHORT $LN8@Init@2
	mov	eax, edi
$LN8@Init@2:
	mov	edx, DWORD PTR [esi+20]
	mov	DWORD PTR [edx], edi
	mov	ecx, DWORD PTR [esi+36]
	mov	DWORD PTR [ecx], eax
	mov	edx, edi
	sub	edx, eax
	mov	eax, DWORD PTR [esi+52]
	add	edx, ebx
	mov	DWORD PTR [eax], edx

; 289  : 				if (_Mysb::gptr() == 0)

	mov	ecx, DWORD PTR [esi+32]
	cmp	DWORD PTR [ecx], 0
	jne	SHORT $LN27@Init@2

; 290  : 					_Mysb::setg(_Pnew, 0, _Pnew);

	mov	edx, DWORD PTR [esi+16]
	mov	DWORD PTR [edx], edi
	mov	eax, DWORD PTR [esi+32]
	mov	DWORD PTR [eax], 0
	mov	ecx, DWORD PTR [esi+48]
	mov	DWORD PTR [ecx], edi
$LN27@Init@2:

; 291  : 				}
; 292  : 			_Mystate |= _Allocated;

	or	DWORD PTR [esi+64], 1
	pop	edi
$LN9@Init@2:

; 293  : 			}
; 294  : 		}

	ret	0
?_Init@?$basic_stringbuf@DU?$char_traits@D@std@@V?$allocator@D@2@@std@@IAEXPBDIH@Z ENDP ; std::basic_stringbuf<char,std::char_traits<char>,std::allocator<char> >::_Init
_TEXT	ENDS
;	COMDAT xdata$x
; File c:\program files\microsoft visual studio 8\vc\include\streambuf
xdata$x	SEGMENT
__unwindtable$??0?$basic_streambuf@DU?$char_traits@D@std@@@std@@IAE@XZ DD 0ffffffffH
	DD	FLAT:__unwindfunclet$??0?$basic_streambuf@DU?$char_traits@D@std@@@std@@IAE@XZ$0
__ehfuncinfo$??0?$basic_streambuf@DU?$char_traits@D@std@@@std@@IAE@XZ DD 019930522H
	DD	01H
	DD	FLAT:__unwindtable$??0?$basic_streambuf@DU?$char_traits@D@std@@@std@@IAE@XZ
	DD	2 DUP(00H)
	DD	2 DUP(00H)
	DD	00H
	DD	01H
; Function compile flags: /Ogtpy
xdata$x	ENDS
;	COMDAT ??0?$basic_streambuf@DU?$char_traits@D@std@@@std@@IAE@XZ
_TEXT	SEGMENT
__Lock$32602 = -16					; size = 4
__$EHRec$ = -12						; size = 12
_this$ = 8						; size = 4
??0?$basic_streambuf@DU?$char_traits@D@std@@@std@@IAE@XZ PROC ; std::basic_streambuf<char,std::char_traits<char> >::basic_streambuf<char,std::char_traits<char> >, COMDAT

; 29   : 		{	// construct with no buffers

	push	-1
	push	__ehhandler$??0?$basic_streambuf@DU?$char_traits@D@std@@@std@@IAE@XZ
	mov	eax, DWORD PTR fs:0
	push	eax
	push	ecx
	push	ebx
	push	esi
	push	edi
	mov	eax, DWORD PTR ___security_cookie
	xor	eax, esp
	push	eax
	lea	eax, DWORD PTR __$EHRec$[esp+32]
	mov	DWORD PTR fs:0, eax
	mov	esi, DWORD PTR _this$[esp+28]
	lea	ecx, DWORD PTR [esi+4]
	mov	DWORD PTR [esi], OFFSET ??_7?$basic_streambuf@DU?$char_traits@D@std@@@std@@6B@
	call	??0_Mutex@std@@QAE@XZ			; std::_Mutex::_Mutex
	push	4
	mov	DWORD PTR __$EHRec$[esp+44], 0
	call	??2@YAPAXI@Z				; operator new
	mov	edi, eax
	add	esp, 4
	test	edi, edi
	je	SHORT $LN3@basic_stre
	call	?_Init@locale@std@@CAPAV_Locimp@12@XZ	; std::locale::_Init
	mov	DWORD PTR [edi], eax
	call	?_Getgloballocale@locale@std@@CAPAV_Locimp@12@XZ ; std::locale::_Getgloballocale
	push	0
	lea	ecx, DWORD PTR __Lock$32602[esp+36]
	mov	ebx, eax
	call	??0_Lockit@std@@QAE@H@Z			; std::_Lockit::_Lockit
	mov	eax, DWORD PTR [ebx+4]
	cmp	eax, -1
	jae	SHORT $LN8@basic_stre
	add	eax, 1
	mov	DWORD PTR [ebx+4], eax
$LN8@basic_stre:
	lea	ecx, DWORD PTR __Lock$32602[esp+32]
	call	??1_Lockit@std@@QAE@XZ			; std::_Lockit::~_Lockit
	jmp	SHORT $LN4@basic_stre
$LN3@basic_stre:
	xor	edi, edi
$LN4@basic_stre:

; 30   : 		_Init();

	lea	eax, DWORD PTR [esi+8]
	mov	DWORD PTR [esi+16], eax
	lea	ecx, DWORD PTR [esi+24]
	mov	DWORD PTR [esi+32], ecx
	lea	edx, DWORD PTR [esi+28]
	mov	DWORD PTR [esi+36], edx
	mov	DWORD PTR [esi+56], edi
	lea	eax, DWORD PTR [esi+12]
	mov	DWORD PTR [esi+20], eax
	lea	ecx, DWORD PTR [esi+40]
	mov	DWORD PTR [esi+48], ecx
	lea	edx, DWORD PTR [esi+44]
	mov	DWORD PTR [esi+52], edx
	mov	DWORD PTR [eax], 0
	mov	eax, DWORD PTR [esi+36]
	mov	DWORD PTR [eax], 0
	mov	ecx, DWORD PTR [esi+52]
	mov	DWORD PTR [ecx], 0
	mov	edx, DWORD PTR [esi+16]
	mov	DWORD PTR [edx], 0
	mov	eax, DWORD PTR [esi+32]
	mov	DWORD PTR [eax], 0
	mov	ecx, DWORD PTR [esi+48]
	mov	DWORD PTR [ecx], 0

; 31   : 		}

	mov	eax, esi
	mov	ecx, DWORD PTR __$EHRec$[esp+32]
	mov	DWORD PTR fs:0, ecx
	pop	ecx
	pop	edi
	pop	esi
	pop	ebx
	add	esp, 16					; 00000010H
	ret	4
_TEXT	ENDS
;	COMDAT text$x
text$x	SEGMENT
__unwindfunclet$??0?$basic_streambuf@DU?$char_traits@D@std@@@std@@IAE@XZ$0:
	mov	ecx, DWORD PTR _this$[ebp-4]
	add	ecx, 4
	jmp	??1_Mutex@std@@QAE@XZ			; std::_Mutex::~_Mutex
__ehhandler$??0?$basic_streambuf@DU?$char_traits@D@std@@@std@@IAE@XZ:
	mov	edx, DWORD PTR [esp+8]
	lea	eax, DWORD PTR [edx-16]
	mov	ecx, DWORD PTR [edx-20]
	xor	ecx, eax
	call	@__security_check_cookie@4
	mov	eax, OFFSET __ehfuncinfo$??0?$basic_streambuf@DU?$char_traits@D@std@@@std@@IAE@XZ
	jmp	___CxxFrameHandler3
text$x	ENDS
??0?$basic_streambuf@DU?$char_traits@D@std@@@std@@IAE@XZ ENDP ; std::basic_streambuf<char,std::char_traits<char> >::basic_streambuf<char,std::char_traits<char> >
; Function compile flags: /Ogtpy
;	COMDAT ??_G?$num_put@DV?$ostreambuf_iterator@DU?$char_traits@D@std@@@std@@@std@@MAEPAXI@Z
_TEXT	SEGMENT
___flags$ = 8						; size = 4
??_G?$num_put@DV?$ostreambuf_iterator@DU?$char_traits@D@std@@@std@@@std@@MAEPAXI@Z PROC ; std::num_put<char,std::ostreambuf_iterator<char,std::char_traits<char> > >::`scalar deleting destructor', COMDAT
; _this$ = ecx
	test	BYTE PTR ___flags$[esp-4], 1
	push	esi
	mov	esi, ecx
	mov	DWORD PTR [esi], OFFSET ??_7facet@locale@std@@6B@
	je	SHORT $LN8@scalar@7
	push	esi
	call	??3@YAXPAX@Z				; operator delete
	add	esp, 4
$LN8@scalar@7:
	mov	eax, esi
	pop	esi
	ret	4
??_G?$num_put@DV?$ostreambuf_iterator@DU?$char_traits@D@std@@@std@@@std@@MAEPAXI@Z ENDP ; std::num_put<char,std::ostreambuf_iterator<char,std::char_traits<char> > >::`scalar deleting destructor'
; Function compile flags: /Ogtpy
_TEXT	ENDS
;	COMDAT ??_D?$basic_ostream@DU?$char_traits@D@std@@@std@@QAEXXZ
_TEXT	SEGMENT
??_D?$basic_ostream@DU?$char_traits@D@std@@@std@@QAEXXZ PROC ; std::basic_ostream<char,std::char_traits<char> >::`vbase destructor', COMDAT
; _this$ = eax
	mov	ecx, DWORD PTR [eax]
	mov	edx, DWORD PTR [ecx+4]
	add	eax, 4
	mov	DWORD PTR [edx+eax-4], OFFSET ??_7?$basic_ostream@DU?$char_traits@D@std@@@std@@6B@
	push	eax
	mov	DWORD PTR [eax], OFFSET ??_7ios_base@std@@6B@
	call	?_Ios_base_dtor@ios_base@std@@CAXPAV12@@Z ; std::ios_base::_Ios_base_dtor
	pop	ecx
	ret	0
??_D?$basic_ostream@DU?$char_traits@D@std@@@std@@QAEXXZ ENDP ; std::basic_ostream<char,std::char_traits<char> >::`vbase destructor'
; Function compile flags: /Ogtpy
_TEXT	ENDS
;	COMDAT ??_Glocale@std@@QAEPAXI@Z
_TEXT	SEGMENT
__Lock$32677 = -4					; size = 4
___flags$ = 8						; size = 4
??_Glocale@std@@QAEPAXI@Z PROC				; std::locale::`scalar deleting destructor', COMDAT
; _this$ = ecx
	push	ecx
	push	ebx
	mov	ebx, ecx
	push	edi
	mov	edi, DWORD PTR [ebx]
	test	edi, edi
	je	SHORT $LN7@scalar@8
	push	0
	lea	ecx, DWORD PTR __Lock$32677[esp+16]
	call	??0_Lockit@std@@QAE@H@Z			; std::_Lockit::_Lockit
	mov	eax, DWORD PTR [edi+4]
	test	eax, eax
	jbe	SHORT $LN9@scalar@8
	cmp	eax, -1
	jae	SHORT $LN9@scalar@8
	add	eax, -1
	mov	DWORD PTR [edi+4], eax
$LN9@scalar@8:
	push	esi
	mov	esi, DWORD PTR [edi+4]
	neg	esi
	sbb	esi, esi
	not	esi
	lea	ecx, DWORD PTR __Lock$32677[esp+16]
	and	esi, edi
	call	??1_Lockit@std@@QAE@XZ			; std::_Lockit::~_Lockit
	test	esi, esi
	je	SHORT $LN13@scalar@8
	mov	eax, DWORD PTR [esi]
	mov	edx, DWORD PTR [eax]
	push	1
	mov	ecx, esi
	call	edx
$LN13@scalar@8:
	pop	esi
$LN7@scalar@8:
	test	BYTE PTR ___flags$[esp+8], 1
	je	SHORT $LN12@scalar@8
	push	ebx
	call	??3@YAXPAX@Z				; operator delete
	add	esp, 4
$LN12@scalar@8:
	pop	edi
	mov	eax, ebx
	pop	ebx
	pop	ecx
	ret	4
??_Glocale@std@@QAEPAXI@Z ENDP				; std::locale::`scalar deleting destructor'
; Function compile flags: /Ogtpy
_TEXT	ENDS
;	COMDAT ??_G?$basic_ios@DU?$char_traits@D@std@@@std@@UAEPAXI@Z
_TEXT	SEGMENT
___flags$ = 8						; size = 4
??_G?$basic_ios@DU?$char_traits@D@std@@@std@@UAEPAXI@Z PROC ; std::basic_ios<char,std::char_traits<char> >::`scalar deleting destructor', COMDAT
; _this$ = ecx
	push	esi
	mov	esi, ecx
	push	esi
	mov	DWORD PTR [esi], OFFSET ??_7ios_base@std@@6B@
	call	?_Ios_base_dtor@ios_base@std@@CAXPAV12@@Z ; std::ios_base::_Ios_base_dtor
	add	esp, 4
	test	BYTE PTR ___flags$[esp], 1
	je	SHORT $LN9@scalar@9
	push	esi
	call	??3@YAXPAX@Z				; operator delete
	add	esp, 4
$LN9@scalar@9:
	mov	eax, esi
	pop	esi
	ret	4
??_G?$basic_ios@DU?$char_traits@D@std@@@std@@UAEPAXI@Z ENDP ; std::basic_ios<char,std::char_traits<char> >::`scalar deleting destructor'
; Function compile flags: /Ogtpy
_TEXT	ENDS
;	COMDAT ??_G?$basic_ostream@DU?$char_traits@D@std@@@std@@UAEPAXI@Z
_TEXT	SEGMENT
___flags$ = 8						; size = 4
??_G?$basic_ostream@DU?$char_traits@D@std@@@std@@UAEPAXI@Z PROC ; std::basic_ostream<char,std::char_traits<char> >::`scalar deleting destructor', COMDAT
; _this$ = ecx
	push	esi
	lea	esi, DWORD PTR [ecx-4]
	mov	ecx, DWORD PTR [esi]
	mov	edx, DWORD PTR [ecx+4]
	lea	eax, DWORD PTR [esi+4]
	mov	DWORD PTR [edx+eax-4], OFFSET ??_7?$basic_ostream@DU?$char_traits@D@std@@@std@@6B@
	push	eax
	mov	DWORD PTR [eax], OFFSET ??_7ios_base@std@@6B@
	call	?_Ios_base_dtor@ios_base@std@@CAXPAV12@@Z ; std::ios_base::_Ios_base_dtor
	add	esp, 4
	test	BYTE PTR ___flags$[esp], 1
	je	SHORT $LN13@scalar@10
	push	esi
	call	??3@YAXPAX@Z				; operator delete
	add	esp, 4
$LN13@scalar@10:
	mov	eax, esi
	pop	esi
	ret	4
??_G?$basic_ostream@DU?$char_traits@D@std@@@std@@UAEPAXI@Z ENDP ; std::basic_ostream<char,std::char_traits<char> >::`scalar deleting destructor'
; Function compile flags: /Ogtpy
; File c:\program files\microsoft visual studio 8\vc\include\sstream
_TEXT	ENDS
;	COMDAT ?pbackfail@?$basic_stringbuf@DU?$char_traits@D@std@@V?$allocator@D@2@@std@@MAEHH@Z
_TEXT	SEGMENT
__Meta$ = 8						; size = 4
?pbackfail@?$basic_stringbuf@DU?$char_traits@D@std@@V?$allocator@D@2@@std@@MAEHH@Z PROC ; std::basic_stringbuf<char,std::char_traits<char>,std::allocator<char> >::pbackfail, COMDAT
; _this$ = ecx

; 154  : 		if (_Mysb::gptr() == 0
; 155  : 			|| _Mysb::gptr() <= _Mysb::eback()
; 156  : 			|| !_Traits::eq_int_type(_Traits::eof(), _Meta)
; 157  : 			&& !_Traits::eq(_Traits::to_char_type(_Meta), _Mysb::gptr()[-1])
; 158  : 			&& _Mystate & _Constant)

	mov	eax, DWORD PTR [ecx+32]
	mov	eax, DWORD PTR [eax]
	test	eax, eax
	je	SHORT $LN3@pbackfail
	mov	edx, DWORD PTR [ecx+16]
	cmp	eax, DWORD PTR [edx]
	jbe	SHORT $LN3@pbackfail
	mov	edx, DWORD PTR __Meta$[esp-4]
	cmp	edx, -1
	je	SHORT $LN4@pbackfail
	cmp	dl, BYTE PTR [eax-1]
	je	SHORT $LN4@pbackfail
	test	BYTE PTR [ecx+64], 2
	jne	SHORT $LN3@pbackfail
$LN4@pbackfail:

; 160  : 		else
; 161  : 			{	// back up one position and store put-back character
; 162  : 			_Mysb::gbump(-1);

	mov	eax, DWORD PTR [ecx+48]
	add	DWORD PTR [eax], 1
	mov	eax, DWORD PTR [ecx+32]
	add	DWORD PTR [eax], -1

; 163  : 			if (!_Traits::eq_int_type(_Traits::eof(), _Meta))

	cmp	edx, -1
	je	SHORT $LN37@pbackfail

; 164  : 				*_Mysb::gptr() = _Traits::to_char_type(_Meta);

	mov	eax, DWORD PTR [ecx+32]
	mov	ecx, DWORD PTR [eax]
	mov	BYTE PTR [ecx], dl

; 165  : 			return (_Traits::not_eof(_Meta));

	mov	eax, edx

; 166  : 			}
; 167  : 		}

	ret	4

; 165  : 			return (_Traits::not_eof(_Meta));

$LN37@pbackfail:
	xor	eax, eax

; 166  : 			}
; 167  : 		}

	ret	4
$LN3@pbackfail:

; 159  : 			return (_Traits::eof());	// can't put back, fail

	or	eax, -1

; 166  : 			}
; 167  : 		}

	ret	4
?pbackfail@?$basic_stringbuf@DU?$char_traits@D@std@@V?$allocator@D@2@@std@@MAEHH@Z ENDP ; std::basic_stringbuf<char,std::char_traits<char>,std::allocator<char> >::pbackfail
; Function compile flags: /Ogtpy
_TEXT	ENDS
;	COMDAT ?overflow@?$basic_stringbuf@DU?$char_traits@D@std@@V?$allocator@D@2@@std@@MAEHH@Z
_TEXT	SEGMENT
__Meta$ = 8						; size = 4
?overflow@?$basic_stringbuf@DU?$char_traits@D@std@@V?$allocator@D@2@@std@@MAEHH@Z PROC ; std::basic_stringbuf<char,std::char_traits<char>,std::allocator<char> >::overflow, COMDAT
; _this$ = ecx

; 87   : 		{	// put an element to stream

	push	ebx
	push	esi
	mov	esi, ecx

; 88   : 		if (_Mystate & _Append
; 89   : 			&& _Mysb::pptr() != 0 && _Mysb::pptr() < _Seekhigh)

	test	BYTE PTR [esi+64], 8
	push	edi
	je	SHORT $LN113@overflow
	mov	edi, DWORD PTR [esi+36]
	mov	edx, DWORD PTR [edi]
	test	edx, edx
	je	SHORT $LN113@overflow
	mov	ecx, DWORD PTR [esi+60]
	cmp	edx, ecx
	jae	SHORT $LN113@overflow

; 90   : 			_Mysb::setp(_Mysb::pbase(), _Seekhigh, _Mysb::epptr());

	mov	eax, DWORD PTR [esi+52]
	mov	eax, DWORD PTR [eax]
	add	eax, edx
	mov	DWORD PTR [edi], ecx
	sub	eax, ecx
	mov	ecx, DWORD PTR [esi+52]
	mov	DWORD PTR [ecx], eax
$LN113@overflow:

; 91   : 
; 92   : 		if (_Traits::eq_int_type(_Traits::eof(), _Meta))

	mov	ebx, DWORD PTR __Meta$[esp+8]
	cmp	ebx, -1
	jne	SHORT $LN17@overflow
	pop	edi
	pop	esi

; 93   : 			return (_Traits::not_eof(_Meta));	// EOF, return success code

	xor	eax, eax
	pop	ebx

; 149  : 			}
; 150  : 		}

	ret	4
$LN17@overflow:

; 94   : 		else if (_Mysb::pptr() != 0
; 95   : 			&& _Mysb::pptr() < _Mysb::epptr())

	mov	ecx, DWORD PTR [esi+36]
	mov	edx, DWORD PTR [ecx]
	test	edx, edx
	je	SHORT $LN15@overflow
	mov	eax, DWORD PTR [esi+52]
	mov	edi, DWORD PTR [eax]
	mov	ecx, edx
	add	edi, ecx
	cmp	ecx, edi
	jae	SHORT $LN15@overflow

; 96   : 			{	// room in buffer, store it
; 97   : 			*_Mysb::_Pninc() = _Traits::to_char_type(_Meta);

	add	DWORD PTR [eax], -1
	mov	esi, DWORD PTR [esi+36]
	mov	eax, DWORD PTR [esi]
	lea	edx, DWORD PTR [eax+1]
	pop	edi
	mov	DWORD PTR [esi], edx
	mov	BYTE PTR [eax], bl
	pop	esi

; 98   : 			return (_Meta);

	mov	eax, ebx
	pop	ebx

; 149  : 			}
; 150  : 		}

	ret	4
$LN15@overflow:

; 99   : 			}
; 100  : 		else if (_Mystate & _Constant)

	test	BYTE PTR [esi+64], 2
	je	SHORT $LN13@overflow
	pop	edi
	pop	esi

; 101  : 			return (_Traits::eof());	// array nonmutable, fail

	or	eax, -1
	pop	ebx

; 149  : 			}
; 150  : 		}

	ret	4
$LN13@overflow:

; 102  : 		else
; 103  : 			{	// grow buffer and store element
; 104  : 			size_t _Oldsize = _Mysb::pptr() == 0
; 105  : 				? 0 : _Mysb::epptr() - _Mysb::eback();

	test	edx, edx
	push	ebp
	jne	SHORT $LN21@overflow
	xor	ebp, ebp
	jmp	SHORT $LN22@overflow
$LN21@overflow:
	mov	eax, DWORD PTR [esi+52]
	mov	ecx, DWORD PTR [esi+16]
	mov	ebp, DWORD PTR [eax]
	sub	ebp, DWORD PTR [ecx]
	add	ebp, edx
$LN22@overflow:

; 106  : 			size_t _Newsize = _Oldsize;
; 107  : 			size_t _Inc = _Newsize / 2 < _MINSIZE
; 108  : 				? _MINSIZE : _Newsize / 2;	// grow by 50 per cent

	mov	eax, ebp
	shr	eax, 1
	cmp	eax, 32					; 00000020H
	mov	ebx, ebp
	jae	SHORT $LN23@overflow
	mov	eax, 32					; 00000020H
$LN23@overflow:

; 109  : 			_Elem *_Ptr = 0;

	xor	edi, edi

; 110  : 
; 111  : 			while (0 < _Inc && INT_MAX - _Inc < _Newsize)

	test	eax, eax
	jbe	SHORT $LN9@overflow
$LL11@overflow:
	mov	edx, 2147483647				; 7fffffffH
	sub	edx, eax
	cmp	edx, ebp
	jae	SHORT $LN10@overflow

; 112  : 				_Inc /= 2;	// increment causes overflow, halve it

	shr	eax, 1

; 110  : 
; 111  : 			while (0 < _Inc && INT_MAX - _Inc < _Newsize)

	jne	SHORT $LL11@overflow

; 113  : 			if (0 < _Inc)

	jmp	SHORT $LN9@overflow
$LN10@overflow:
	test	eax, eax
	jbe	SHORT $LN9@overflow

; 114  : 				{	// finite increment, allocate new character array
; 115  : 				_Newsize += _Inc;

	lea	ebx, DWORD PTR [eax+ebp]

; 116  : 				_Ptr = _Al.allocate(_Newsize);

	push	ebx
	lea	ecx, DWORD PTR [esi+68]
	call	?allocate@?$allocator@D@std@@QAEPADI@Z	; std::allocator<char>::allocate
	mov	edi, eax
$LN9@overflow:

; 117  : 				}
; 118  : 
; 119  : 			if (0 < _Oldsize)

	test	ebp, ebp
	jbe	SHORT $LN73@overflow

; 120  : 				_Traits_helper::copy_s<_Traits>(_Ptr, _Newsize, _Mysb::eback(), _Oldsize);

	mov	eax, DWORD PTR [esi+16]
	mov	ecx, DWORD PTR [eax]
	push	ebp
	push	ecx
	push	ebx
	push	edi
	call	_memcpy_s
	add	esp, 16					; 00000010H
$LN73@overflow:

; 121  : 			if (_Mystate & _Allocated)

	test	BYTE PTR [esi+64], 1
	je	SHORT $LN77@overflow

; 122  : 				_Al.deallocate(_Mysb::eback(), _Oldsize);

	mov	edx, DWORD PTR [esi+16]
	mov	eax, DWORD PTR [edx]
	push	eax
	call	??3@YAXPAX@Z				; operator delete
	add	esp, 4
$LN77@overflow:

; 123  : 			_Mystate |= _Allocated;

	or	DWORD PTR [esi+64], 1

; 124  : 
; 125  : 			if (_Oldsize == 0)

	test	ebp, ebp
	jne	SHORT $LN6@overflow

; 126  : 				{	// first growth, set up pointers
; 127  : 				_Seekhigh = _Ptr;
; 128  : 				_Mysb::setp(_Ptr, _Ptr + _Newsize);

	mov	ecx, DWORD PTR [esi+20]
	mov	DWORD PTR [esi+60], edi
	mov	DWORD PTR [ecx], edi
	mov	edx, DWORD PTR [esi+36]
	mov	DWORD PTR [edx], edi
	mov	eax, DWORD PTR [esi+52]
	mov	DWORD PTR [eax], ebx

; 129  : 				if (_Mystate & _Noread)
; 130  : 					_Mysb::setg(_Ptr, 0, _Ptr);

	mov	ecx, DWORD PTR [esi+16]
	test	BYTE PTR [esi+64], 4
	mov	DWORD PTR [ecx], edi
	mov	edx, DWORD PTR [esi+32]

; 131  : 				else

	jne	SHORT $LN114@overflow

; 132  : 					_Mysb::setg(_Ptr, _Ptr, _Ptr + 1);

	mov	DWORD PTR [edx], edi
	mov	eax, DWORD PTR [esi+48]
	mov	DWORD PTR [eax], 1

; 133  : 				}
; 134  : 			else

	jmp	SHORT $LN105@overflow
$LN6@overflow:

; 135  : 				{	// not first growth, adjust pointers
; 136  : 				_Seekhigh = _Seekhigh - _Mysb::eback() + _Ptr;

	mov	eax, DWORD PTR [esi+16]

; 137  : 				_Mysb::setp(_Mysb::pbase() - _Mysb::eback() + _Ptr,
; 138  : 					_Mysb::pptr() - _Mysb::eback() + _Ptr, _Ptr + _Newsize);

	mov	edx, DWORD PTR [esi+36]
	mov	ecx, edi
	sub	ecx, DWORD PTR [eax]
	mov	ebp, edi
	add	DWORD PTR [esi+60], ecx
	mov	ecx, DWORD PTR [eax]
	mov	eax, DWORD PTR [edx]
	mov	edx, DWORD PTR [esi+20]
	sub	eax, ecx
	sub	ebp, ecx
	add	DWORD PTR [edx], ebp
	mov	ecx, DWORD PTR [esi+36]
	add	eax, edi
	mov	edx, edi
	sub	edx, eax
	mov	DWORD PTR [ecx], eax
	mov	eax, DWORD PTR [esi+52]
	add	edx, ebx
	mov	DWORD PTR [eax], edx

; 139  : 				if (_Mystate & _Noread)

	test	BYTE PTR [esi+64], 4
	je	SHORT $LN2@overflow

; 140  : 					_Mysb::setg(_Ptr, 0, _Ptr);

	mov	ecx, DWORD PTR [esi+16]
	mov	DWORD PTR [ecx], edi
	mov	edx, DWORD PTR [esi+32]
$LN114@overflow:
	mov	DWORD PTR [edx], 0
	mov	eax, DWORD PTR [esi+48]
	mov	DWORD PTR [eax], edi

; 141  : 				else

	jmp	SHORT $LN105@overflow
$LN2@overflow:

; 142  : 					_Mysb::setg(_Ptr,
; 143  : 						_Mysb::gptr() - _Mysb::eback() + _Ptr,
; 144  : 						_Mysb::pptr() + 1);

	mov	eax, DWORD PTR [esi+32]
	mov	eax, DWORD PTR [eax]
	mov	edx, DWORD PTR [esi+16]
	sub	eax, DWORD PTR [edx]
	mov	ecx, DWORD PTR [esi+36]
	mov	ecx, DWORD PTR [ecx]
	add	eax, edi
	mov	DWORD PTR [edx], edi
	mov	edx, DWORD PTR [esi+32]
	sub	ecx, eax
	mov	DWORD PTR [edx], eax
	mov	eax, DWORD PTR [esi+48]
	add	ecx, 1
	mov	DWORD PTR [eax], ecx
$LN105@overflow:

; 145  : 				}
; 146  : 
; 147  : 			*_Mysb::_Pninc() = _Traits::to_char_type(_Meta);

	mov	eax, DWORD PTR [esi+52]
	add	DWORD PTR [eax], -1
	mov	esi, DWORD PTR [esi+36]
	mov	eax, DWORD PTR [esi]
	lea	ecx, DWORD PTR [eax+1]
	pop	ebp
	mov	DWORD PTR [esi], ecx
	mov	ecx, DWORD PTR __Meta$[esp+8]
	pop	edi
	pop	esi
	mov	BYTE PTR [eax], cl

; 148  : 			return (_Meta);

	mov	eax, ecx
	pop	ebx

; 149  : 			}
; 150  : 		}

	ret	4
?overflow@?$basic_stringbuf@DU?$char_traits@D@std@@V?$allocator@D@2@@std@@MAEHH@Z ENDP ; std::basic_stringbuf<char,std::char_traits<char>,std::allocator<char> >::overflow
; Function compile flags: /Ogtpy
; File c:\program files\microsoft visual studio 8\vc\include\streambuf
_TEXT	ENDS
;	COMDAT ?xsputn@?$basic_streambuf@DU?$char_traits@D@std@@@std@@MAEHPBDH@Z
_TEXT	SEGMENT
__Copied$ = -4						; size = 4
__Ptr$ = 8						; size = 4
__Count$ = 12						; size = 4
?xsputn@?$basic_streambuf@DU?$char_traits@D@std@@@std@@MAEHPBDH@Z PROC ; std::basic_streambuf<char,std::char_traits<char> >::xsputn, COMDAT
; _this$ = ecx

; 363  : 		{	// put _Count characters to stream

	push	ecx
	push	ebp

; 364  : 		streamsize _Stream_size, _Size, _Copied;
; 365  : 
; 366  : 		for (_Copied = 0; 0 < _Count; )

	mov	ebp, DWORD PTR __Count$[esp+4]
	push	esi
	xor	esi, esi
	test	ebp, ebp
	push	edi
	mov	edi, ecx
	mov	DWORD PTR __Copied$[esp+16], esi
	jle	SHORT $LN31@xsputn
	push	ebx
	mov	ebx, DWORD PTR __Ptr$[esp+16]
	npad	7
$LL7@xsputn:

; 367  : 			if (0 < (_Stream_size = _Pnavail()))

	mov	eax, edi
	call	?_Pnavail@?$basic_streambuf@DU?$char_traits@D@std@@@std@@IBEHXZ ; std::basic_streambuf<char,std::char_traits<char> >::_Pnavail
	test	eax, eax
	jle	SHORT $LN5@xsputn

; 368  : 				{	// copy to write buffer
; 369  : 				_Size = _Stream_size;
; 370  : 				if (_Count < _Size)

	cmp	ebp, eax
	mov	esi, eax
	jge	SHORT $LN4@xsputn

; 371  : 					_Size = _Count;

	mov	esi, ebp
$LN4@xsputn:

; 372  : 				_Traits_helper::copy_s<_Traits>(pptr(), _Stream_size, _Ptr, _Size);

	push	esi
	push	ebx
	push	eax
	mov	eax, DWORD PTR [edi+36]
	mov	ecx, DWORD PTR [eax]
	push	ecx
	call	_memcpy_s

; 373  : 				_Ptr += _Size;
; 374  : 				_Copied += _Size;
; 375  : 				_Count -= _Size;
; 376  : 				pbump((int)_Size);

	mov	eax, DWORD PTR [edi+52]
	sub	DWORD PTR [eax], esi
	add	DWORD PTR __Copied$[esp+36], esi
	mov	eax, DWORD PTR [edi+36]
	add	ebx, esi
	sub	ebp, esi
	add	esp, 16					; 00000010H
	add	DWORD PTR [eax], esi

; 377  : 				}
; 378  : 			else if (_Traits::eq_int_type(_Traits::eof(),

	mov	esi, DWORD PTR __Copied$[esp+20]
	jmp	SHORT $LN1@xsputn
$LN5@xsputn:

; 379  : 				overflow(_Traits::to_int_type(*_Ptr))))

	movzx	eax, BYTE PTR [ebx]
	mov	edx, DWORD PTR [edi]
	push	eax
	mov	eax, DWORD PTR [edx+4]
	mov	ecx, edi
	call	eax
	cmp	eax, -1
	je	SHORT $LN30@xsputn

; 380  : 				break;	// single character put failed, quit
; 381  : 			else
; 382  : 				{	// count character successfully put
; 383  : 				++_Ptr;
; 384  : 				++_Copied;

	add	esi, 1
	add	ebx, 1
	mov	DWORD PTR __Copied$[esp+20], esi

; 385  : 				--_Count;

	sub	ebp, 1
$LN1@xsputn:

; 364  : 		streamsize _Stream_size, _Size, _Copied;
; 365  : 
; 366  : 		for (_Copied = 0; 0 < _Count; )

	test	ebp, ebp
	jg	SHORT $LL7@xsputn
$LN30@xsputn:
	pop	ebx
	pop	edi

; 386  : 				}
; 387  : 
; 388  : 		return (_Copied);

	mov	eax, esi
	pop	esi
	pop	ebp

; 389  : 		}

	pop	ecx
	ret	8
$LN31@xsputn:
	pop	edi

; 386  : 				}
; 387  : 
; 388  : 		return (_Copied);

	mov	eax, esi
	pop	esi
	pop	ebp

; 389  : 		}

	pop	ecx
	ret	8
?xsputn@?$basic_streambuf@DU?$char_traits@D@std@@@std@@MAEHPBDH@Z ENDP ; std::basic_streambuf<char,std::char_traits<char> >::xsputn
; Function compile flags: /Ogtpy
_TEXT	ENDS
;	COMDAT ?_Xsgetn_s@?$basic_streambuf@DU?$char_traits@D@std@@@std@@MAEHPADIH@Z
_TEXT	SEGMENT
__Copied$ = -4						; size = 4
__Ptr$ = 8						; size = 4
__Ptr_size$ = 12					; size = 4
__Count$ = 16						; size = 4
?_Xsgetn_s@?$basic_streambuf@DU?$char_traits@D@std@@@std@@MAEHPADIH@Z PROC ; std::basic_streambuf<char,std::char_traits<char> >::_Xsgetn_s, COMDAT
; _this$ = ecx

; 333  : 		{	// get _Count characters from stream

	push	ecx
	push	ebp

; 334  : 		int_type _Meta;
; 335  : 		streamsize _Stream_size, _Size, _Copied;
; 336  : 
; 337  : 		for (_Copied = 0; 0 < _Count; )

	mov	ebp, DWORD PTR __Count$[esp+4]
	push	esi
	xor	esi, esi
	test	ebp, ebp
	push	edi
	mov	edi, ecx
	mov	DWORD PTR __Copied$[esp+16], esi
	jle	SHORT $LN31@Xsgetn_s
	push	ebx
	mov	ebx, DWORD PTR __Ptr$[esp+16]
	npad	7
$LL7@Xsgetn_s:

; 338  : 			if (0 < (_Stream_size = _Gnavail()))

	mov	eax, edi
	call	?_Gnavail@?$basic_streambuf@DU?$char_traits@D@std@@@std@@IBEHXZ ; std::basic_streambuf<char,std::char_traits<char> >::_Gnavail
	test	eax, eax
	jle	SHORT $LN5@Xsgetn_s

; 339  : 				{	// copy from read buffer
; 340  : 				_Size = _Stream_size;
; 341  : 				if (_Count < _Size)

	cmp	ebp, eax
	mov	esi, eax
	jge	SHORT $LN4@Xsgetn_s

; 342  : 					_Size = _Count;

	mov	esi, ebp
$LN4@Xsgetn_s:

; 343  : 				_Traits_helper::copy_s<_Traits>(_Ptr, _Ptr_size, gptr(), _Size);

	mov	eax, DWORD PTR [edi+32]
	mov	ecx, DWORD PTR [eax]
	mov	edx, DWORD PTR __Ptr_size$[esp+16]
	push	esi
	push	ecx
	push	edx
	push	ebx
	call	_memcpy_s

; 344  : 				_Ptr += _Size;
; 345  : 				_Copied += _Size;
; 346  : 				_Count -= _Size;
; 347  : 				gbump((int)_Size);

	mov	eax, DWORD PTR [edi+48]
	sub	DWORD PTR [eax], esi
	add	DWORD PTR __Copied$[esp+36], esi
	mov	eax, DWORD PTR [edi+32]
	add	ebx, esi
	sub	ebp, esi
	add	esp, 16					; 00000010H
	add	DWORD PTR [eax], esi
	mov	esi, DWORD PTR __Copied$[esp+20]
	jmp	SHORT $LN1@Xsgetn_s
$LN5@Xsgetn_s:

; 348  : 				}
; 349  : 			else if (_Traits::eq_int_type(_Traits::eof(), _Meta = uflow()))

	mov	eax, DWORD PTR [edi]
	mov	edx, DWORD PTR [eax+20]
	mov	ecx, edi
	call	edx
	cmp	eax, -1
	je	SHORT $LN30@Xsgetn_s

; 350  : 				break;	// end of file, quit
; 351  : 			else
; 352  : 				{	// get a single character
; 353  : 				*_Ptr++ = _Traits::to_char_type(_Meta);
; 354  : 				++_Copied;

	add	esi, 1
	mov	BYTE PTR [ebx], al
	add	ebx, 1
	mov	DWORD PTR __Copied$[esp+20], esi

; 355  : 				--_Count;

	sub	ebp, 1
$LN1@Xsgetn_s:

; 334  : 		int_type _Meta;
; 335  : 		streamsize _Stream_size, _Size, _Copied;
; 336  : 
; 337  : 		for (_Copied = 0; 0 < _Count; )

	test	ebp, ebp
	jg	SHORT $LL7@Xsgetn_s
$LN30@Xsgetn_s:
	pop	ebx
	pop	edi

; 356  : 				}
; 357  : 
; 358  : 		return (_Copied);

	mov	eax, esi
	pop	esi
	pop	ebp

; 359  : 		}

	pop	ecx
	ret	12					; 0000000cH
$LN31@Xsgetn_s:
	pop	edi

; 356  : 				}
; 357  : 
; 358  : 		return (_Copied);

	mov	eax, esi
	pop	esi
	pop	ebp

; 359  : 		}

	pop	ecx
	ret	12					; 0000000cH
?_Xsgetn_s@?$basic_streambuf@DU?$char_traits@D@std@@@std@@MAEHPADIH@Z ENDP ; std::basic_streambuf<char,std::char_traits<char> >::_Xsgetn_s
; Function compile flags: /Ogtpy
_TEXT	ENDS
;	COMDAT ??1?$basic_streambuf@DU?$char_traits@D@std@@@std@@UAE@XZ
_TEXT	SEGMENT
__Lock$33119 = -4					; size = 4
??1?$basic_streambuf@DU?$char_traits@D@std@@@std@@UAE@XZ PROC ; std::basic_streambuf<char,std::char_traits<char> >::~basic_streambuf<char,std::char_traits<char> >, COMDAT
; _this$ = ecx

; 43   : 		{	// destroy the object

	push	ecx
	push	ebx
	push	ebp
	mov	ebp, ecx

; 44   : 		_DELETE_CRT(_Plocale);

	mov	ebx, DWORD PTR [ebp+56]
	test	ebx, ebx
	mov	DWORD PTR [ebp], OFFSET ??_7?$basic_streambuf@DU?$char_traits@D@std@@@std@@6B@
	je	SHORT $LN3@basic_stre@2
	push	edi
	mov	edi, DWORD PTR [ebx]
	test	edi, edi
	je	SHORT $LN12@basic_stre@2
	push	0
	lea	ecx, DWORD PTR __Lock$33119[esp+20]
	call	??0_Lockit@std@@QAE@H@Z			; std::_Lockit::_Lockit
	mov	eax, DWORD PTR [edi+4]
	test	eax, eax
	jbe	SHORT $LN14@basic_stre@2
	cmp	eax, -1
	jae	SHORT $LN14@basic_stre@2
	add	eax, -1
	mov	DWORD PTR [edi+4], eax
$LN14@basic_stre@2:
	push	esi
	mov	esi, DWORD PTR [edi+4]
	neg	esi
	sbb	esi, esi
	not	esi
	lea	ecx, DWORD PTR __Lock$33119[esp+20]
	and	esi, edi
	call	??1_Lockit@std@@QAE@XZ			; std::_Lockit::~_Lockit
	test	esi, esi
	je	SHORT $LN18@basic_stre@2
	mov	eax, DWORD PTR [esi]
	mov	edx, DWORD PTR [eax]
	push	1
	mov	ecx, esi
	call	edx
$LN18@basic_stre@2:
	pop	esi
$LN12@basic_stre@2:
	push	ebx
	call	??3@YAXPAX@Z				; operator delete
	add	esp, 4
	pop	edi
$LN3@basic_stre@2:

; 45   : 		}

	lea	ecx, DWORD PTR [ebp+4]
	pop	ebp
	pop	ebx
	add	esp, 4
	jmp	??1_Mutex@std@@QAE@XZ			; std::_Mutex::~_Mutex
??1?$basic_streambuf@DU?$char_traits@D@std@@@std@@UAE@XZ ENDP ; std::basic_streambuf<char,std::char_traits<char> >::~basic_streambuf<char,std::char_traits<char> >
; Function compile flags: /Ogtpy
; File c:\program files\microsoft visual studio 8\vc\include\xlocnum
;	COMDAT ?grouping@?$numpunct@D@std@@QBE?AV?$basic_string@DU?$char_traits@D@std@@V?$allocator@D@2@@2@XZ
_TEXT	SEGMENT
$T34681 = -4						; size = 4
?grouping@?$numpunct@D@std@@QBE?AV?$basic_string@DU?$char_traits@D@std@@V?$allocator@D@2@@2@XZ PROC ; std::numpunct<char>::grouping, COMDAT
; _this$ = ecx
; ___$ReturnUdt$ = esi

; 69   : 		{	// return grouping string

	push	ecx

; 70   : 		return (do_grouping());

	mov	eax, DWORD PTR [ecx]
	mov	edx, DWORD PTR [eax+12]
	push	esi
	mov	DWORD PTR $T34681[esp+8], 0
	call	edx
	mov	eax, esi

; 71   : 		}

	pop	ecx
	ret	0
?grouping@?$numpunct@D@std@@QBE?AV?$basic_string@DU?$char_traits@D@std@@V?$allocator@D@2@@2@XZ ENDP ; std::numpunct<char>::grouping
; Function compile flags: /Ogtpy
_TEXT	ENDS
;	COMDAT ?_Putgrouped@?$num_put@DV?$ostreambuf_iterator@DU?$char_traits@D@std@@@std@@@std@@ABA?AV?$ostreambuf_iterator@DU?$char_traits@D@std@@@2@V32@PBDID@Z
_TEXT	SEGMENT
$T34688 = -24						; size = 12
$T34689 = -12						; size = 12
___$ReturnUdt$ = 8					; size = 4
__Dest$ = 12						; size = 12
__Count$ = 24						; size = 4
__Kseparator$ = 28					; size = 1
?_Putgrouped@?$num_put@DV?$ostreambuf_iterator@DU?$char_traits@D@std@@@std@@@std@@ABA?AV?$ostreambuf_iterator@DU?$char_traits@D@std@@@2@V32@PBDID@Z PROC ; std::num_put<char,std::ostreambuf_iterator<char,std::char_traits<char> > >::_Putgrouped, COMDAT
; __Ptr$ = eax

; 1330 : 		{	// put char sequence [_Ptr, _Ptr + _Count) to _Dest with commas

	sub	esp, 24					; 00000018H
	push	ebx
	mov	ebx, DWORD PTR __Dest$[esp+24]
	push	ebp
	mov	ebp, DWORD PTR __Dest$[esp+32]
	push	esi
	push	edi
	mov	edi, eax
$LL5@Putgrouped:

; 1331 : 		for (; ; ++_Ptr, --_Count)
; 1332 : 			{	// put field with thousands separators for NULs
; 1333 : 			const char *_Pend =
; 1334 : 				(const char *)::memchr(_Ptr, '\0', _Count);

	mov	esi, DWORD PTR __Count$[esp+36]
	push	esi
	push	0
	push	edi
	call	_memchr
	add	esp, 12					; 0000000cH

; 1335 : 			size_t _Groupsize = _Pend != 0 ? _Pend - _Ptr : _Count;

	test	eax, eax
	je	SHORT $LN8@Putgrouped
	sub	eax, edi
	mov	esi, eax
$LN8@Putgrouped:

; 1336 : 
; 1337 : 			_Dest = _Putc(_Dest, _Ptr, _Groupsize);

	mov	ecx, DWORD PTR __Dest$[esp+44]
	push	edi
	sub	esp, 12					; 0000000cH
	mov	eax, esp
	mov	DWORD PTR [eax], ebx
	mov	DWORD PTR [eax+4], ebp
	lea	edx, DWORD PTR $T34688[esp+56]
	mov	DWORD PTR [eax+8], ecx
	push	edx
	mov	eax, esi
	call	?_Putc@?$num_put@DV?$ostreambuf_iterator@DU?$char_traits@D@std@@@std@@@std@@ABA?AV?$ostreambuf_iterator@DU?$char_traits@D@std@@@2@V32@PBDI@Z ; std::num_put<char,std::ostreambuf_iterator<char,std::char_traits<char> > >::_Putc
	mov	ecx, DWORD PTR [eax+8]
	mov	ebx, DWORD PTR [eax]
	mov	ebp, DWORD PTR [eax+4]
	add	esp, 20					; 00000014H

; 1338 : 			_Ptr += _Groupsize, _Count -= _Groupsize;

	add	edi, esi
	sub	DWORD PTR __Count$[esp+36], esi
	mov	DWORD PTR __Dest$[esp+44], ecx

; 1339 : 			if (_Count == 0)

	je	SHORT $LN12@Putgrouped

; 1340 : 				break;
; 1341 : 			if (_Kseparator != (_Elem)0)

	mov	dl, BYTE PTR __Kseparator$[esp+36]
	test	dl, dl
	je	SHORT $LN4@Putgrouped

; 1342 : 				_Dest = _Rep(_Dest, _Kseparator, 1);

	mov	eax, DWORD PTR [eax+8]
	sub	esp, 12					; 0000000cH
	mov	ecx, esp
	mov	esi, ebx
	mov	DWORD PTR [ecx], esi
	mov	esi, ebp
	mov	DWORD PTR [ecx+4], esi
	mov	DWORD PTR [ecx+8], eax
	lea	ecx, DWORD PTR $T34689[esp+52]
	push	ecx
	mov	eax, 1
	mov	bl, dl
	call	?_Rep@?$num_put@DV?$ostreambuf_iterator@DU?$char_traits@D@std@@@std@@@std@@ABA?AV?$ostreambuf_iterator@DU?$char_traits@D@std@@@2@V32@DI@Z ; std::num_put<char,std::ostreambuf_iterator<char,std::char_traits<char> > >::_Rep
	mov	edx, DWORD PTR [eax+8]
	mov	ebx, DWORD PTR [eax]
	mov	ebp, DWORD PTR [eax+4]
	add	esp, 16					; 00000010H
	mov	DWORD PTR __Dest$[esp+44], edx
$LN4@Putgrouped:
	add	edi, 1
	sub	DWORD PTR __Count$[esp+36], 1
	jmp	$LL5@Putgrouped
$LN12@Putgrouped:

; 1343 : 			}
; 1344 : 		return (_Dest);

	mov	ecx, DWORD PTR ___$ReturnUdt$[esp+36]
	mov	eax, DWORD PTR [eax+8]
	mov	edx, ebx

; 1345 : 		}

	pop	edi
	mov	DWORD PTR [ecx], edx
	mov	edx, ebp
	pop	esi
	mov	DWORD PTR [ecx+4], edx
	pop	ebp
	mov	DWORD PTR [ecx+8], eax
	mov	eax, ecx
	pop	ebx
	add	esp, 24					; 00000018H
	ret	0
?_Putgrouped@?$num_put@DV?$ostreambuf_iterator@DU?$char_traits@D@std@@@std@@@std@@ABA?AV?$ostreambuf_iterator@DU?$char_traits@D@std@@@2@V32@PBDID@Z ENDP ; std::num_put<char,std::ostreambuf_iterator<char,std::char_traits<char> > >::_Putgrouped
; Function compile flags: /Ogtpy
_TEXT	ENDS
;	COMDAT ?truename@?$numpunct@D@std@@QBE?AV?$basic_string@DU?$char_traits@D@std@@V?$allocator@D@2@@2@XZ
_TEXT	SEGMENT
$T34698 = -4						; size = 4
?truename@?$numpunct@D@std@@QBE?AV?$basic_string@DU?$char_traits@D@std@@V?$allocator@D@2@@2@XZ PROC ; std::numpunct<char>::truename, COMDAT
; _this$ = ecx
; ___$ReturnUdt$ = esi

; 79   : 		{	// return name for true

	push	ecx

; 80   : 		return (do_truename());

	mov	eax, DWORD PTR [ecx]
	mov	edx, DWORD PTR [eax+20]
	push	esi
	mov	DWORD PTR $T34698[esp+8], 0
	call	edx
	mov	eax, esi

; 81   : 		}

	pop	ecx
	ret	0
?truename@?$numpunct@D@std@@QBE?AV?$basic_string@DU?$char_traits@D@std@@V?$allocator@D@2@@2@XZ ENDP ; std::numpunct<char>::truename
; Function compile flags: /Ogtpy
_TEXT	ENDS
;	COMDAT ?falsename@?$numpunct@D@std@@QBE?AV?$basic_string@DU?$char_traits@D@std@@V?$allocator@D@2@@2@XZ
_TEXT	SEGMENT
$T34704 = -4						; size = 4
?falsename@?$numpunct@D@std@@QBE?AV?$basic_string@DU?$char_traits@D@std@@V?$allocator@D@2@@2@XZ PROC ; std::numpunct<char>::falsename, COMDAT
; _this$ = ecx
; ___$ReturnUdt$ = esi

; 74   : 		{	// return name for false

	push	ecx

; 75   : 		return (do_falsename());

	mov	eax, DWORD PTR [ecx]
	mov	edx, DWORD PTR [eax+16]
	push	esi
	mov	DWORD PTR $T34704[esp+8], 0
	call	edx
	mov	eax, esi

; 76   : 		}

	pop	ecx
	ret	0
?falsename@?$numpunct@D@std@@QBE?AV?$basic_string@DU?$char_traits@D@std@@V?$allocator@D@2@@2@XZ ENDP ; std::numpunct<char>::falsename
_TEXT	ENDS
;	COMDAT xdata$x
; File c:\program files\microsoft visual studio 8\vc\include\sstream
xdata$x	SEGMENT
__unwindtable$??0?$basic_stringbuf@DU?$char_traits@D@std@@V?$allocator@D@2@@std@@QAE@H@Z DD 0ffffffffH
	DD	FLAT:__unwindfunclet$??0?$basic_stringbuf@DU?$char_traits@D@std@@V?$allocator@D@2@@std@@QAE@H@Z$0
__ehfuncinfo$??0?$basic_stringbuf@DU?$char_traits@D@std@@V?$allocator@D@2@@std@@QAE@H@Z DD 019930522H
	DD	01H
	DD	FLAT:__unwindtable$??0?$basic_stringbuf@DU?$char_traits@D@std@@V?$allocator@D@2@@std@@QAE@H@Z
	DD	2 DUP(00H)
	DD	2 DUP(00H)
	DD	00H
	DD	01H
; Function compile flags: /Ogtpy
xdata$x	ENDS
;	COMDAT ??0?$basic_stringbuf@DU?$char_traits@D@std@@V?$allocator@D@2@@std@@QAE@H@Z
_TEXT	SEGMENT
__$EHRec$ = -12						; size = 12
_this$ = 8						; size = 4
??0?$basic_stringbuf@DU?$char_traits@D@std@@V?$allocator@D@2@@std@@QAE@H@Z PROC ; std::basic_stringbuf<char,std::char_traits<char>,std::allocator<char> >::basic_stringbuf<char,std::char_traits<char>,std::allocator<char> >, COMDAT

; 29   : 	explicit __CLR_OR_THIS_CALL basic_stringbuf(ios_base::openmode _Mode =

	push	-1
	push	__ehhandler$??0?$basic_stringbuf@DU?$char_traits@D@std@@V?$allocator@D@2@@std@@QAE@H@Z
	mov	eax, DWORD PTR fs:0
	push	eax
	push	esi
	mov	eax, DWORD PTR ___security_cookie
	xor	eax, esp
	push	eax
	lea	eax, DWORD PTR __$EHRec$[esp+20]
	mov	DWORD PTR fs:0, eax
	mov	esi, DWORD PTR _this$[esp+16]
	push	esi
	call	??0?$basic_streambuf@DU?$char_traits@D@std@@@std@@IAE@XZ ; std::basic_streambuf<char,std::char_traits<char> >::basic_streambuf<char,std::char_traits<char> >
	mov	DWORD PTR [esi], OFFSET ??_7?$basic_stringbuf@DU?$char_traits@D@std@@V?$allocator@D@2@@std@@6B@

; 30   : 		ios_base::in | ios_base::out)
; 31   : 		{	// construct empty character buffer from mode
; 32   : 		_Init(0, 0, _Getstate(_Mode));

	mov	DWORD PTR [esi+60], 0
	mov	DWORD PTR [esi+64], 4

; 33   : 		}

	mov	eax, esi
	mov	ecx, DWORD PTR __$EHRec$[esp+20]
	mov	DWORD PTR fs:0, ecx
	pop	ecx
	pop	esi
	add	esp, 12					; 0000000cH
	ret	4
_TEXT	ENDS
;	COMDAT text$x
text$x	SEGMENT
__unwindfunclet$??0?$basic_stringbuf@DU?$char_traits@D@std@@V?$allocator@D@2@@std@@QAE@H@Z$0:
	mov	ecx, DWORD PTR _this$[ebp-4]
	jmp	??1?$basic_streambuf@DU?$char_traits@D@std@@@std@@UAE@XZ ; std::basic_streambuf<char,std::char_traits<char> >::~basic_streambuf<char,std::char_traits<char> >
__ehhandler$??0?$basic_stringbuf@DU?$char_traits@D@std@@V?$allocator@D@2@@std@@QAE@H@Z:
	mov	edx, DWORD PTR [esp+8]
	lea	eax, DWORD PTR [edx-4]
	mov	ecx, DWORD PTR [edx-8]
	xor	ecx, eax
	call	@__security_check_cookie@4
	mov	eax, OFFSET __ehfuncinfo$??0?$basic_stringbuf@DU?$char_traits@D@std@@V?$allocator@D@2@@std@@QAE@H@Z
	jmp	___CxxFrameHandler3
text$x	ENDS
??0?$basic_stringbuf@DU?$char_traits@D@std@@V?$allocator@D@2@@std@@QAE@H@Z ENDP ; std::basic_stringbuf<char,std::char_traits<char>,std::allocator<char> >::basic_stringbuf<char,std::char_traits<char>,std::allocator<char> >
; Function compile flags: /Ogtpy
;	COMDAT ??_G?$basic_streambuf@DU?$char_traits@D@std@@@std@@UAEPAXI@Z
_TEXT	SEGMENT
___flags$ = 8						; size = 4
??_G?$basic_streambuf@DU?$char_traits@D@std@@@std@@UAEPAXI@Z PROC ; std::basic_streambuf<char,std::char_traits<char> >::`scalar deleting destructor', COMDAT
; _this$ = ecx
	push	esi
	mov	esi, ecx
	call	??1?$basic_streambuf@DU?$char_traits@D@std@@@std@@UAE@XZ ; std::basic_streambuf<char,std::char_traits<char> >::~basic_streambuf<char,std::char_traits<char> >
	test	BYTE PTR ___flags$[esp], 1
	je	SHORT $LN4@scalar@13
	push	esi
	call	??3@YAXPAX@Z				; operator delete
	add	esp, 4
$LN4@scalar@13:
	mov	eax, esi
	pop	esi
	ret	4
??_G?$basic_streambuf@DU?$char_traits@D@std@@@std@@UAEPAXI@Z ENDP ; std::basic_streambuf<char,std::char_traits<char> >::`scalar deleting destructor'
; Function compile flags: /Ogtpy
_TEXT	ENDS
;	COMDAT ??1?$basic_stringbuf@DU?$char_traits@D@std@@V?$allocator@D@2@@std@@UAE@XZ
_TEXT	SEGMENT
??1?$basic_stringbuf@DU?$char_traits@D@std@@V?$allocator@D@2@@std@@UAE@XZ PROC ; std::basic_stringbuf<char,std::char_traits<char>,std::allocator<char> >::~basic_stringbuf<char,std::char_traits<char>,std::allocator<char> >, COMDAT
; _this$ = ecx

; 42   : 		{	// destroy the object

	push	esi
	mov	esi, ecx

; 43   : 		_Tidy();

	test	BYTE PTR [esi+64], 1
	mov	DWORD PTR [esi], OFFSET ??_7?$basic_stringbuf@DU?$char_traits@D@std@@V?$allocator@D@2@@std@@6B@
	je	SHORT $LN19@basic_stri@2
	mov	eax, DWORD PTR [esi+16]
	mov	ecx, DWORD PTR [eax]
	push	ecx
	call	??3@YAXPAX@Z				; operator delete
	add	esp, 4
$LN19@basic_stri@2:
	mov	edx, DWORD PTR [esi+16]
	mov	DWORD PTR [edx], 0
	mov	eax, DWORD PTR [esi+32]
	mov	DWORD PTR [eax], 0
	mov	ecx, DWORD PTR [esi+48]
	mov	DWORD PTR [ecx], 0
	mov	edx, DWORD PTR [esi+20]
	mov	DWORD PTR [edx], 0
	mov	eax, DWORD PTR [esi+36]
	mov	DWORD PTR [eax], 0
	mov	ecx, DWORD PTR [esi+52]
	mov	DWORD PTR [ecx], 0
	and	DWORD PTR [esi+64], -2			; fffffffeH
	mov	DWORD PTR [esi+60], 0

; 44   : 		}

	mov	ecx, esi
	pop	esi
	jmp	??1?$basic_streambuf@DU?$char_traits@D@std@@@std@@UAE@XZ ; std::basic_streambuf<char,std::char_traits<char> >::~basic_streambuf<char,std::char_traits<char> >
??1?$basic_stringbuf@DU?$char_traits@D@std@@V?$allocator@D@2@@std@@UAE@XZ ENDP ; std::basic_stringbuf<char,std::char_traits<char>,std::allocator<char> >::~basic_stringbuf<char,std::char_traits<char>,std::allocator<char> >
_TEXT	ENDS
;	COMDAT xdata$x
; File c:\program files\microsoft visual studio 8\vc\include\ostream
xdata$x	SEGMENT
__unwindtable$??1?$basic_ostringstream@DU?$char_traits@D@std@@V?$allocator@D@2@@std@@UAE@XZ DD 0ffffffffH
	DD	FLAT:__unwindfunclet$??1?$basic_ostringstream@DU?$char_traits@D@std@@V?$allocator@D@2@@std@@UAE@XZ$0
__ehfuncinfo$??1?$basic_ostringstream@DU?$char_traits@D@std@@V?$allocator@D@2@@std@@UAE@XZ DD 019930522H
	DD	01H
	DD	FLAT:__unwindtable$??1?$basic_ostringstream@DU?$char_traits@D@std@@V?$allocator@D@2@@std@@UAE@XZ
	DD	2 DUP(00H)
	DD	2 DUP(00H)
	DD	00H
	DD	01H
; Function compile flags: /Ogtpy
; File c:\program files\microsoft visual studio 8\vc\include\sstream
xdata$x	ENDS
;	COMDAT ??1?$basic_ostringstream@DU?$char_traits@D@std@@V?$allocator@D@2@@std@@UAE@XZ
_TEXT	SEGMENT
_this$ = -16						; size = 4
__$EHRec$ = -12						; size = 12
??1?$basic_ostringstream@DU?$char_traits@D@std@@V?$allocator@D@2@@std@@UAE@XZ PROC ; std::basic_ostringstream<char,std::char_traits<char>,std::allocator<char> >::~basic_ostringstream<char,std::char_traits<char>,std::allocator<char> >, COMDAT
; _this$ = ecx

; 428  : 		{	// destroy the object

	push	-1
	push	__ehhandler$??1?$basic_ostringstream@DU?$char_traits@D@std@@V?$allocator@D@2@@std@@UAE@XZ
	mov	eax, DWORD PTR fs:0
	push	eax
	push	ecx
	push	esi
	mov	eax, DWORD PTR ___security_cookie
	xor	eax, esp
	push	eax
	lea	eax, DWORD PTR __$EHRec$[esp+24]
	mov	DWORD PTR fs:0, eax
	mov	DWORD PTR _this$[esp+24], ecx
	mov	eax, DWORD PTR [ecx-76]
	mov	edx, DWORD PTR [eax+4]
	mov	DWORD PTR [edx+ecx-76], OFFSET ??_7?$basic_ostringstream@DU?$char_traits@D@std@@V?$allocator@D@2@@std@@6B@

; 429  : 		}

	lea	esi, DWORD PTR [ecx-72]
	mov	ecx, esi
	mov	DWORD PTR __$EHRec$[esp+32], 0
	call	??1?$basic_stringbuf@DU?$char_traits@D@std@@V?$allocator@D@2@@std@@UAE@XZ ; std::basic_stringbuf<char,std::char_traits<char>,std::allocator<char> >::~basic_stringbuf<char,std::char_traits<char>,std::allocator<char> >
	mov	eax, DWORD PTR [esi-4]
	mov	ecx, DWORD PTR [eax+4]
	mov	DWORD PTR [ecx+esi-4], OFFSET ??_7?$basic_ostream@DU?$char_traits@D@std@@@std@@6B@
	mov	ecx, DWORD PTR __$EHRec$[esp+24]
	mov	DWORD PTR fs:0, ecx
	pop	ecx
	pop	esi
	add	esp, 16					; 00000010H
	ret	0
_TEXT	ENDS
;	COMDAT text$x
text$x	SEGMENT
__unwindfunclet$??1?$basic_ostringstream@DU?$char_traits@D@std@@V?$allocator@D@2@@std@@UAE@XZ$0:
	mov	ecx, DWORD PTR _this$[ebp]
	sub	ecx, 72					; 00000048H
	jmp	??1?$basic_ostream@DU?$char_traits@D@std@@@std@@UAE@XZ ; std::basic_ostream<char,std::char_traits<char> >::~basic_ostream<char,std::char_traits<char> >
__ehhandler$??1?$basic_ostringstream@DU?$char_traits@D@std@@V?$allocator@D@2@@std@@UAE@XZ:
	mov	edx, DWORD PTR [esp+8]
	lea	eax, DWORD PTR [edx-8]
	mov	ecx, DWORD PTR [edx-12]
	xor	ecx, eax
	call	@__security_check_cookie@4
	mov	eax, OFFSET __ehfuncinfo$??1?$basic_ostringstream@DU?$char_traits@D@std@@V?$allocator@D@2@@std@@UAE@XZ
	jmp	___CxxFrameHandler3
text$x	ENDS
??1?$basic_ostringstream@DU?$char_traits@D@std@@V?$allocator@D@2@@std@@UAE@XZ ENDP ; std::basic_ostringstream<char,std::char_traits<char>,std::allocator<char> >::~basic_ostringstream<char,std::char_traits<char>,std::allocator<char> >
; Function compile flags: /Ogtpy
;	COMDAT ??_D?$basic_ostringstream@DU?$char_traits@D@std@@V?$allocator@D@2@@std@@QAEXXZ
_TEXT	SEGMENT
??_D?$basic_ostringstream@DU?$char_traits@D@std@@V?$allocator@D@2@@std@@QAEXXZ PROC ; std::basic_ostringstream<char,std::char_traits<char>,std::allocator<char> >::`vbase destructor', COMDAT
; _this$ = eax
	push	esi
	mov	esi, eax
	add	esi, 76					; 0000004cH
	mov	ecx, esi
	call	??1?$basic_ostringstream@DU?$char_traits@D@std@@V?$allocator@D@2@@std@@UAE@XZ ; std::basic_ostringstream<char,std::char_traits<char>,std::allocator<char> >::~basic_ostringstream<char,std::char_traits<char>,std::allocator<char> >
	push	esi
	mov	DWORD PTR [esi], OFFSET ??_7ios_base@std@@6B@
	call	?_Ios_base_dtor@ios_base@std@@CAXPAV12@@Z ; std::ios_base::_Ios_base_dtor
	add	esp, 4
	pop	esi
	ret	0
??_D?$basic_ostringstream@DU?$char_traits@D@std@@V?$allocator@D@2@@std@@QAEXXZ ENDP ; std::basic_ostringstream<char,std::char_traits<char>,std::allocator<char> >::`vbase destructor'
; Function compile flags: /Ogtpy
; File f:\cygwin\home\charles\gusale\gusale\lib\jsoncpp-src-0.5.0\include\json\writer.h
_TEXT	ENDS
;	COMDAT ??1FastWriter@Json@@UAE@XZ
_TEXT	SEGMENT
??1FastWriter@Json@@UAE@XZ PROC				; Json::FastWriter::~FastWriter, COMDAT
; _this$ = ecx

; 33   :       virtual ~FastWriter(){}

	push	esi
	mov	esi, ecx
	mov	DWORD PTR [esi], OFFSET ??_7FastWriter@Json@@6B@
	cmp	DWORD PTR [esi+28], 16			; 00000010H
	jb	SHORT $LN19@FastWriter
	mov	eax, DWORD PTR [esi+8]
	push	eax
	call	??3@YAXPAX@Z				; operator delete
	add	esp, 4
$LN19@FastWriter:
	xor	eax, eax
	mov	DWORD PTR [esi+28], 15			; 0000000fH
	mov	DWORD PTR [esi+24], eax
	mov	BYTE PTR [esi+8], al
	mov	DWORD PTR [esi], OFFSET ??_7Writer@Json@@6B@
	pop	esi
	ret	0
??1FastWriter@Json@@UAE@XZ ENDP				; Json::FastWriter::~FastWriter
; Function compile flags: /Ogtpy
; File c:\program files\microsoft visual studio 8\vc\include\xutility
;	COMDAT ??$_Copy_opt@PAV?$basic_string@DU?$char_traits@D@std@@V?$allocator@D@2@@std@@PAV12@Uforward_iterator_tag@2@@std@@YAPAV?$basic_string@DU?$char_traits@D@std@@V?$allocator@D@2@@0@PAV10@00Uforward_iterator_tag@0@U_Nonscalar_ptr_iterator_tag@0@U_Range_checked_iterator_tag@0@@Z
_TEXT	SEGMENT
___formal$ = 8						; size = 1
___formal$ = 12						; size = 1
___formal$ = 16						; size = 1
??$_Copy_opt@PAV?$basic_string@DU?$char_traits@D@std@@V?$allocator@D@2@@std@@PAV12@Uforward_iterator_tag@2@@std@@YAPAV?$basic_string@DU?$char_traits@D@std@@V?$allocator@D@2@@0@PAV10@00Uforward_iterator_tag@0@U_Nonscalar_ptr_iterator_tag@0@U_Range_checked_iterator_tag@0@@Z PROC ; std::_Copy_opt<std::basic_string<char,std::char_traits<char>,std::allocator<char> > *,std::basic_string<char,std::char_traits<char>,std::allocator<char> > *,std::forward_iterator_tag>, COMDAT
; __First$ = ecx
; __Last$ = ebx
; __Dest$ = eax

; 2225 : 	{	// copy [_First, _Last) to [_Dest, ...), arbitrary iterators

	push	esi
	mov	esi, ecx

; 2226 : 	_DEBUG_RANGE(_First, _Last);
; 2227 : 	for (; _First != _Last; ++_Dest, ++_First)

	cmp	esi, ebx
	push	edi
	mov	edi, eax
	je	SHORT $LN1@Copy_opt
	npad	6
$LL3@Copy_opt:

; 2228 : 		*_Dest = *_First;

	push	-1
	push	0
	push	esi
	mov	ecx, edi
	call	?assign@?$basic_string@DU?$char_traits@D@std@@V?$allocator@D@2@@std@@QAEAAV12@ABV12@II@Z ; std::basic_string<char,std::char_traits<char>,std::allocator<char> >::assign
	add	esi, 28					; 0000001cH
	add	edi, 28					; 0000001cH
	cmp	esi, ebx
	jne	SHORT $LL3@Copy_opt

; 2229 : 	return (_Dest);

	mov	eax, edi
$LN1@Copy_opt:
	pop	edi
	pop	esi

; 2230 : 	}

	ret	0
??$_Copy_opt@PAV?$basic_string@DU?$char_traits@D@std@@V?$allocator@D@2@@std@@PAV12@Uforward_iterator_tag@2@@std@@YAPAV?$basic_string@DU?$char_traits@D@std@@V?$allocator@D@2@@0@PAV10@00Uforward_iterator_tag@0@U_Nonscalar_ptr_iterator_tag@0@U_Range_checked_iterator_tag@0@@Z ENDP ; std::_Copy_opt<std::basic_string<char,std::char_traits<char>,std::allocator<char> > *,std::basic_string<char,std::char_traits<char>,std::allocator<char> > *,std::forward_iterator_tag>
; Function compile flags: /Ogtpy
_TEXT	ENDS
;	COMDAT ??$_Copy_opt@PAV?$basic_string@DU?$char_traits@D@std@@V?$allocator@D@2@@std@@PAV12@@std@@YAPAV?$basic_string@DU?$char_traits@D@std@@V?$allocator@D@2@@0@PAV10@00Urandom_access_iterator_tag@0@U_Nonscalar_ptr_iterator_tag@0@U_Range_checked_iterator_tag@0@@Z
_TEXT	SEGMENT
___formal$ = 8						; size = 1
___formal$ = 12						; size = 1
___formal$ = 16						; size = 1
??$_Copy_opt@PAV?$basic_string@DU?$char_traits@D@std@@V?$allocator@D@2@@std@@PAV12@@std@@YAPAV?$basic_string@DU?$char_traits@D@std@@V?$allocator@D@2@@0@PAV10@00Urandom_access_iterator_tag@0@U_Nonscalar_ptr_iterator_tag@0@U_Range_checked_iterator_tag@0@@Z PROC ; std::_Copy_opt<std::basic_string<char,std::char_traits<char>,std::allocator<char> > *,std::basic_string<char,std::char_traits<char>,std::allocator<char> > *>, COMDAT
; __First$ = ecx
; __Last$ = edi
; __Dest$ = eax

; 2237 : 	{	// copy [_First, _Last) to [_Dest, ...), random_access iterators

	push	ebx
	push	ebp
	mov	ebx, eax
	push	esi
	mov	esi, ecx

; 2238 : 	// if _OutIt is range checked, this will make sure there is enough space for the copy
; 2239 : 	_OutIt _Result = _Dest + (_Last - _First);

	mov	ecx, edi
	sub	ecx, esi
	mov	eax, -1840700269			; 92492493H
	imul	ecx
	add	edx, ecx
	sar	edx, 4
	mov	eax, edx
	shr	eax, 31					; 0000001fH
	add	eax, edx
	lea	ecx, DWORD PTR [eax*8]
	sub	ecx, eax

; 2240 : 	_Copy_opt(_First, _Last, _CHECKED_BASE(_Dest), 
; 2241 : 		forward_iterator_tag(), _Nonscalar_ptr_iterator_tag(), _Range_checked_iterator_tag());

	cmp	esi, edi
	lea	ebp, DWORD PTR [ebx+ecx*4]
	je	SHORT $LN18@Copy_opt@2
	sub	ebx, esi
$LL9@Copy_opt@2:
	push	-1
	push	0
	push	esi
	lea	ecx, DWORD PTR [ebx+esi]
	call	?assign@?$basic_string@DU?$char_traits@D@std@@V?$allocator@D@2@@std@@QAEAAV12@ABV12@II@Z ; std::basic_string<char,std::char_traits<char>,std::allocator<char> >::assign
	add	esi, 28					; 0000001cH
	cmp	esi, edi
	jne	SHORT $LL9@Copy_opt@2
$LN18@Copy_opt@2:
	pop	esi

; 2242 : 	return _Result;

	mov	eax, ebp
	pop	ebp
	pop	ebx

; 2243 : 	}

	ret	0
??$_Copy_opt@PAV?$basic_string@DU?$char_traits@D@std@@V?$allocator@D@2@@std@@PAV12@@std@@YAPAV?$basic_string@DU?$char_traits@D@std@@V?$allocator@D@2@@0@PAV10@00Urandom_access_iterator_tag@0@U_Nonscalar_ptr_iterator_tag@0@U_Range_checked_iterator_tag@0@@Z ENDP ; std::_Copy_opt<std::basic_string<char,std::char_traits<char>,std::allocator<char> > *,std::basic_string<char,std::char_traits<char>,std::allocator<char> > *>
; Function compile flags: /Ogtpy
_TEXT	ENDS
;	COMDAT ??$unchecked_copy@PAV?$basic_string@DU?$char_traits@D@std@@V?$allocator@D@2@@std@@PAV12@@stdext@@YAPAV?$basic_string@DU?$char_traits@D@std@@V?$allocator@D@2@@std@@PAV12@00@Z
_TEXT	SEGMENT
??$unchecked_copy@PAV?$basic_string@DU?$char_traits@D@std@@V?$allocator@D@2@@std@@PAV12@@stdext@@YAPAV?$basic_string@DU?$char_traits@D@std@@V?$allocator@D@2@@std@@PAV12@00@Z PROC ; stdext::unchecked_copy<std::basic_string<char,std::char_traits<char>,std::allocator<char> > *,std::basic_string<char,std::char_traits<char>,std::allocator<char> > *>, COMDAT
; __First$ = ecx
; __Last$ = edi
; __Dest$ = eax

; 2974 : 	{	// copy [_First, _Last) to [_Dest, ...)

	push	ebx
	push	ebp
	mov	ebx, eax
	push	esi
	mov	esi, ecx

; 2975 : 		return (_STD _Copy_opt(_CHECKED_BASE(_First), _CHECKED_BASE(_Last), _Dest,
; 2976 : 			_STD _Iter_random(_First, _Dest), _STD _Ptr_cat(_First, _Dest), _STD _Range_checked_iterator_tag()));

	mov	ecx, edi
	sub	ecx, esi
	mov	eax, -1840700269			; 92492493H
	imul	ecx
	add	edx, ecx
	sar	edx, 4
	mov	eax, edx
	shr	eax, 31					; 0000001fH
	add	eax, edx
	lea	ecx, DWORD PTR [eax*8]
	sub	ecx, eax
	cmp	esi, edi
	lea	ebp, DWORD PTR [ebx+ecx*4]
	je	SHORT $LN32@unchecked_
	sub	ebx, esi
$LL23@unchecked_:
	push	-1
	push	0
	push	esi
	lea	ecx, DWORD PTR [ebx+esi]
	call	?assign@?$basic_string@DU?$char_traits@D@std@@V?$allocator@D@2@@std@@QAEAAV12@ABV12@II@Z ; std::basic_string<char,std::char_traits<char>,std::allocator<char> >::assign
	add	esi, 28					; 0000001cH
	cmp	esi, edi
	jne	SHORT $LL23@unchecked_
$LN32@unchecked_:
	pop	esi
	mov	eax, ebp
	pop	ebp
	pop	ebx

; 2977 : 	}

	ret	0
??$unchecked_copy@PAV?$basic_string@DU?$char_traits@D@std@@V?$allocator@D@2@@std@@PAV12@@stdext@@YAPAV?$basic_string@DU?$char_traits@D@std@@V?$allocator@D@2@@std@@PAV12@00@Z ENDP ; stdext::unchecked_copy<std::basic_string<char,std::char_traits<char>,std::allocator<char> > *,std::basic_string<char,std::char_traits<char>,std::allocator<char> > *>
; Function compile flags: /Ogtpy
; File c:\program files\microsoft visual studio 8\vc\include\xstring
_TEXT	ENDS
;	COMDAT ?insert@?$basic_string@DU?$char_traits@D@std@@V?$allocator@D@2@@std@@QAEAAV12@IID@Z
_TEXT	SEGMENT
__Num$ = -4						; size = 4
tv178 = 8						; size = 4
__Count$ = 8						; size = 4
__Ch$ = 12						; size = 1
?insert@?$basic_string@DU?$char_traits@D@std@@V?$allocator@D@2@@std@@QAEAAV12@IID@Z PROC ; std::basic_string<char,std::char_traits<char>,std::allocator<char> >::insert, COMDAT
; _this$ = esi
; __Off$ = ebx

; 1136 : 		{	// insert _Count * _Ch at _Off

	push	ecx

; 1137 : 		if (_Mysize < _Off)

	cmp	DWORD PTR [esi+20], ebx
	push	ebp
	mov	ebp, DWORD PTR __Count$[esp+4]
	jae	SHORT $LN3@insert

; 1138 : 			_String_base::_Xran();	// _Off off end

	call	?_Xran@_String_base@std@@SAXXZ		; std::_String_base::_Xran
$LN3@insert:

; 1139 : 		if (npos - _Mysize <= _Count)

	or	eax, -1
	sub	eax, DWORD PTR [esi+20]
	cmp	eax, ebp
	ja	SHORT $LN2@insert

; 1140 : 			_String_base::_Xlen();	// result too long

	call	?_Xlen@_String_base@std@@SAXXZ		; std::_String_base::_Xlen
$LN2@insert:

; 1141 : 		size_type _Num;
; 1142 : 		if (0 < _Count && _Grow(_Num = _Mysize + _Count))

	test	ebp, ebp
	jbe	$LN96@insert
	push	edi
	mov	edi, DWORD PTR [esi+20]
	add	edi, ebp
	cmp	edi, -2					; fffffffeH
	mov	DWORD PTR __Num$[esp+12], edi
	jbe	SHORT $LN11@insert
	call	?_Xlen@_String_base@std@@SAXXZ		; std::_String_base::_Xlen
$LN11@insert:
	mov	eax, DWORD PTR [esi+24]
	cmp	eax, edi
	jae	SHORT $LN10@insert
	mov	ecx, DWORD PTR [esi+20]
	push	ecx
	push	edi
	mov	ecx, esi
	call	?_Copy@?$basic_string@DU?$char_traits@D@std@@V?$allocator@D@2@@std@@IAEXII@Z ; std::basic_string<char,std::char_traits<char>,std::allocator<char> >::_Copy
	test	edi, edi
$LN99@insert:
	jbe	$LN97@insert

; 1143 : 			{	// make room and insert new stuff
; 1144 : 			_Traits_helper::move_s<_Traits>(_Myptr() + _Off + _Count, _Myres - _Off - _Count,
; 1145 : 				_Myptr() + _Off, _Mysize - _Off);	// empty out hole

	mov	eax, DWORD PTR [esi+24]
	cmp	eax, 16					; 00000010H
	lea	edi, DWORD PTR [esi+4]
	jb	SHORT $LN58@insert
	mov	edx, DWORD PTR [edi]
	mov	DWORD PTR tv178[esp+8], edx
	jmp	SHORT $LN59@insert

; 1141 : 		size_type _Num;
; 1142 : 		if (0 < _Count && _Grow(_Num = _Mysize + _Count))

$LN10@insert:
	test	edi, edi
	jne	SHORT $LN99@insert
	cmp	eax, 16					; 00000010H
	mov	DWORD PTR [esi+20], edi
	jb	SHORT $LN52@insert
	mov	eax, DWORD PTR [esi+4]
	pop	edi
	mov	BYTE PTR [eax], 0

; 1148 : 			}
; 1149 : 		return (*this);

	mov	eax, esi
	pop	ebp

; 1150 : 		}

	pop	ecx
	ret	8

; 1141 : 		size_type _Num;
; 1142 : 		if (0 < _Count && _Grow(_Num = _Mysize + _Count))

$LN52@insert:
	lea	eax, DWORD PTR [esi+4]
	pop	edi
	mov	BYTE PTR [eax], 0

; 1148 : 			}
; 1149 : 		return (*this);

	mov	eax, esi
	pop	ebp

; 1150 : 		}

	pop	ecx
	ret	8

; 1143 : 			{	// make room and insert new stuff
; 1144 : 			_Traits_helper::move_s<_Traits>(_Myptr() + _Off + _Count, _Myres - _Off - _Count,
; 1145 : 				_Myptr() + _Off, _Mysize - _Off);	// empty out hole

$LN58@insert:
	mov	DWORD PTR tv178[esp+8], edi
$LN59@insert:
	cmp	eax, 16					; 00000010H
	jb	SHORT $LN62@insert
	mov	ecx, DWORD PTR [edi]
	jmp	SHORT $LN63@insert
$LN62@insert:
	mov	ecx, edi
$LN63@insert:
	mov	edx, DWORD PTR [esi+20]
	sub	edx, ebx
	push	edx
	mov	edx, DWORD PTR tv178[esp+12]
	add	edx, ebx
	sub	eax, ebx
	push	edx
	sub	eax, ebp
	add	ecx, ebx
	push	eax
	add	ecx, ebp
	push	ecx
	call	_memmove_s
	add	esp, 16					; 00000010H

; 1146 : 			_Chassign(_Off, _Count, _Ch);	// fill hole

	cmp	ebp, 1
	jne	SHORT $LN73@insert
	cmp	DWORD PTR [esi+24], 16			; 00000010H
	jb	SHORT $LN78@insert
	mov	eax, DWORD PTR [edi]
	mov	cl, BYTE PTR __Ch$[esp+8]
	mov	BYTE PTR [eax+ebx], cl
	jmp	SHORT $LN86@insert
$LN78@insert:
	mov	cl, BYTE PTR __Ch$[esp+8]
	mov	eax, edi
	mov	BYTE PTR [eax+ebx], cl
	jmp	SHORT $LN86@insert
$LN73@insert:
	cmp	DWORD PTR [esi+24], 16			; 00000010H
	jb	SHORT $LN84@insert
	mov	eax, DWORD PTR [edi]
	jmp	SHORT $LN85@insert
$LN84@insert:
	mov	eax, edi
$LN85@insert:
	movsx	edx, BYTE PTR __Ch$[esp+8]
	push	ebp
	push	edx
	add	eax, ebx
	push	eax
	call	_memset
	add	esp, 12					; 0000000cH
$LN86@insert:

; 1147 : 			_Eos(_Num);

	cmp	DWORD PTR [esi+24], 16			; 00000010H
	mov	eax, DWORD PTR __Num$[esp+12]
	mov	DWORD PTR [esi+20], eax
	jb	SHORT $LN92@insert
	mov	edi, DWORD PTR [edi]
$LN92@insert:
	mov	BYTE PTR [edi+eax], 0
$LN97@insert:
	pop	edi
$LN96@insert:

; 1148 : 			}
; 1149 : 		return (*this);

	mov	eax, esi
	pop	ebp

; 1150 : 		}

	pop	ecx
	ret	8
?insert@?$basic_string@DU?$char_traits@D@std@@V?$allocator@D@2@@std@@QAEAAV12@IID@Z ENDP ; std::basic_string<char,std::char_traits<char>,std::allocator<char> >::insert
; Function compile flags: /Ogtpy
; File c:\program files\microsoft visual studio 8\vc\include\vector
_TEXT	ENDS
;	COMDAT ?erase@?$vector@V?$basic_string@DU?$char_traits@D@std@@V?$allocator@D@2@@std@@V?$allocator@V?$basic_string@DU?$char_traits@D@std@@V?$allocator@D@2@@std@@@2@@std@@QAE?AV?$_Vector_iterator@V?$basic_string@DU?$char_traits@D@std@@V?$allocator@D@2@@std@@V?$allocator@V?$basic_string@DU?$char_traits@D@std@@V?$allocator@D@2@@std@@@2@@2@V32@0@Z
_TEXT	SEGMENT
__Cat$39136 = 8						; size = 1
___$ReturnUdt$ = 8					; size = 4
__First$ = 12						; size = 8
__Last$ = 20						; size = 8
?erase@?$vector@V?$basic_string@DU?$char_traits@D@std@@V?$allocator@D@2@@std@@V?$allocator@V?$basic_string@DU?$char_traits@D@std@@V?$allocator@D@2@@std@@@2@@std@@QAE?AV?$_Vector_iterator@V?$basic_string@DU?$char_traits@D@std@@V?$allocator@D@2@@std@@V?$allocator@V?$basic_string@DU?$char_traits@D@std@@V?$allocator@D@2@@std@@@2@@2@V32@0@Z PROC ; std::vector<std::basic_string<char,std::char_traits<char>,std::allocator<char> >,std::allocator<std::basic_string<char,std::char_traits<char>,std::allocator<char> > > >::erase, COMDAT
; _this$ = ebx

; 1006 : 		{	// erase [_First, _Last)

	push	ebp
	push	esi

; 1007 : 		if (_First != _Last)

	mov	esi, DWORD PTR __First$[esp+4]
	test	esi, esi
	je	SHORT $LN6@erase@2
	cmp	esi, DWORD PTR __Last$[esp+4]
	je	SHORT $LN7@erase@2
$LN6@erase@2:
	call	__invalid_parameter_noinfo
$LN7@erase@2:
	mov	ebp, DWORD PTR __First$[esp+8]
	mov	ecx, DWORD PTR __Last$[esp+8]
	cmp	ebp, ecx
	je	SHORT $LN1@erase@2
	push	edi

; 1008 : 			{	// worth doing, copy down over hole
; 1009 : 
; 1010 :  #if _HAS_ITERATOR_DEBUGGING
; 1011 : 			if (_Last < _First || _First._Mycont != this
; 1012 : 				|| _First._Myptr < _Myfirst || _Mylast < _Last._Myptr)
; 1013 : 				_DEBUG_ERROR("vector erase iterator outside range");
; 1014 : 			pointer _Ptr = _STDEXT unchecked_copy(_VEC_ITER_BASE(_Last), _Mylast,
; 1015 : 				_VEC_ITER_BASE(_First));
; 1016 : 			_Orphan_range(_First._Myptr, _Mylast);
; 1017 : 
; 1018 :  #else /* _HAS_ITERATOR_DEBUGGING */
; 1019 : 			pointer _Ptr = _STDEXT unchecked_copy(_VEC_ITER_BASE(_Last), _Mylast,
; 1020 : 				_VEC_ITER_BASE(_First));

	mov	edi, DWORD PTR [ebx+8]
	mov	eax, ebp
	call	??$unchecked_copy@PAV?$basic_string@DU?$char_traits@D@std@@V?$allocator@D@2@@std@@PAV12@@stdext@@YAPAV?$basic_string@DU?$char_traits@D@std@@V?$allocator@D@2@@std@@PAV12@00@Z ; stdext::unchecked_copy<std::basic_string<char,std::char_traits<char>,std::allocator<char> > *,std::basic_string<char,std::char_traits<char>,std::allocator<char> > *>

; 1021 :  #endif /* _HAS_ITERATOR_DEBUGGING */
; 1022 : 
; 1023 : 			_Destroy(_Ptr, _Mylast);

	mov	edi, DWORD PTR [ebx+8]
	mov	esi, eax
	mov	eax, DWORD PTR __Cat$39136[esp+8]
	push	eax
	mov	eax, esi
	call	??$_Destroy_range@V?$basic_string@DU?$char_traits@D@std@@V?$allocator@D@2@@std@@V?$allocator@V?$basic_string@DU?$char_traits@D@std@@V?$allocator@D@2@@std@@@2@@std@@YAXPAV?$basic_string@DU?$char_traits@D@std@@V?$allocator@D@2@@0@0AAV?$allocator@V?$basic_string@DU?$char_traits@D@std@@V?$allocator@D@2@@std@@@0@U_Nonscalar_ptr_iterator_tag@0@@Z ; std::_Destroy_range<std::basic_string<char,std::char_traits<char>,std::allocator<char> >,std::allocator<std::basic_string<char,std::char_traits<char>,std::allocator<char> > > >
	add	esp, 4

; 1024 : 			_Mylast = _Ptr;

	mov	DWORD PTR [ebx+8], esi
	mov	esi, DWORD PTR __First$[esp+8]
	pop	edi
$LN1@erase@2:

; 1025 : 			}
; 1026 : #if _HAS_ITERATOR_DEBUGGING
; 1027 :         return (iterator(_First._Myptr, this));
; 1028 : #else
; 1029 : 		return (_First);

	mov	eax, DWORD PTR ___$ReturnUdt$[esp+4]
	mov	DWORD PTR [eax], esi
	pop	esi
	mov	DWORD PTR [eax+4], ebp
	pop	ebp

; 1030 : #endif
; 1031 : 		}

	ret	20					; 00000014H
?erase@?$vector@V?$basic_string@DU?$char_traits@D@std@@V?$allocator@D@2@@std@@V?$allocator@V?$basic_string@DU?$char_traits@D@std@@V?$allocator@D@2@@std@@@2@@std@@QAE?AV?$_Vector_iterator@V?$basic_string@DU?$char_traits@D@std@@V?$allocator@D@2@@std@@V?$allocator@V?$basic_string@DU?$char_traits@D@std@@V?$allocator@D@2@@std@@@2@@2@V32@0@Z ENDP ; std::vector<std::basic_string<char,std::char_traits<char>,std::allocator<char> >,std::allocator<std::basic_string<char,std::char_traits<char>,std::allocator<char> > > >::erase
; Function compile flags: /Ogtpy
; File c:\program files\microsoft visual studio 8\vc\include\xstring
_TEXT	ENDS
;	COMDAT ?assign@?$basic_string@DU?$char_traits@D@std@@V?$allocator@D@2@@std@@QAEAAV12@ID@Z
_TEXT	SEGMENT
?assign@?$basic_string@DU?$char_traits@D@std@@V?$allocator@D@2@@std@@QAEAAV12@ID@Z PROC ; std::basic_string<char,std::char_traits<char>,std::allocator<char> >::assign, COMDAT
; _this$ = esi
; __Count$ = ebx

; 1037 : 		if (_Count == npos)

	cmp	ebx, -1
	jne	SHORT $LN2@assign@2

; 1038 : 			_String_base::_Xlen();	// result too long

	call	?_Xlen@_String_base@std@@SAXXZ		; std::_String_base::_Xlen

; 1039 : 
; 1040 : 		if (_Grow(_Count))

	jmp	SHORT $LN79@assign@2
$LN2@assign@2:
	cmp	ebx, -2					; fffffffeH
	jbe	SHORT $LN10@assign@2
$LN79@assign@2:
	call	?_Xlen@_String_base@std@@SAXXZ		; std::_String_base::_Xlen
$LN10@assign@2:
	mov	eax, DWORD PTR [esi+24]
	cmp	eax, ebx
	jae	SHORT $LN9@assign@2
	mov	eax, DWORD PTR [esi+20]
	push	eax
	push	ebx
	mov	ecx, esi
	call	?_Copy@?$basic_string@DU?$char_traits@D@std@@V?$allocator@D@2@@std@@IAEXII@Z ; std::basic_string<char,std::char_traits<char>,std::allocator<char> >::_Copy
	test	ebx, ebx
$LN81@assign@2:
	jbe	SHORT $LN80@assign@2

; 1041 : 			{	// make room and assign new stuff
; 1042 : 			_Chassign(0, _Count, _Ch);

	cmp	ebx, 1
	push	edi
	lea	edi, DWORD PTR [esi+4]
	jne	SHORT $LN56@assign@2
	cmp	DWORD PTR [esi+24], 16			; 00000010H
	jb	SHORT $LN61@assign@2
	mov	eax, DWORD PTR [edi]
	mov	BYTE PTR [eax], 32			; 00000020H
	jmp	SHORT $LN69@assign@2

; 1039 : 
; 1040 : 		if (_Grow(_Count))

$LN9@assign@2:
	test	ebx, ebx
	jne	SHORT $LN81@assign@2
	cmp	eax, 16					; 00000010H
	mov	DWORD PTR [esi+20], ebx
	jb	SHORT $LN51@assign@2
	mov	eax, DWORD PTR [esi+4]
	mov	BYTE PTR [eax], bl

; 1044 : 			}
; 1045 : 		return (*this);

	mov	eax, esi

; 1046 : 		}

	ret	0

; 1039 : 
; 1040 : 		if (_Grow(_Count))

$LN51@assign@2:
	lea	eax, DWORD PTR [esi+4]
	mov	BYTE PTR [eax], 0

; 1044 : 			}
; 1045 : 		return (*this);

	mov	eax, esi

; 1046 : 		}

	ret	0

; 1041 : 			{	// make room and assign new stuff
; 1042 : 			_Chassign(0, _Count, _Ch);

$LN61@assign@2:
	mov	eax, edi
	mov	BYTE PTR [eax], 32			; 00000020H
	jmp	SHORT $LN69@assign@2
$LN56@assign@2:
	cmp	DWORD PTR [esi+24], 16			; 00000010H
	jb	SHORT $LN67@assign@2
	mov	eax, DWORD PTR [edi]
	jmp	SHORT $LN68@assign@2
$LN67@assign@2:
	mov	eax, edi
$LN68@assign@2:
	push	ebx
	push	32					; 00000020H
	push	eax
	call	_memset
	add	esp, 12					; 0000000cH
$LN69@assign@2:

; 1043 : 			_Eos(_Count);

	cmp	DWORD PTR [esi+24], 16			; 00000010H
	mov	DWORD PTR [esi+20], ebx
	jb	SHORT $LN75@assign@2
	mov	edi, DWORD PTR [edi]
$LN75@assign@2:
	mov	BYTE PTR [edi+ebx], 0
	pop	edi
$LN80@assign@2:

; 1044 : 			}
; 1045 : 		return (*this);

	mov	eax, esi

; 1046 : 		}

	ret	0
?assign@?$basic_string@DU?$char_traits@D@std@@V?$allocator@D@2@@std@@QAEAAV12@ID@Z ENDP ; std::basic_string<char,std::char_traits<char>,std::allocator<char> >::assign
; Function compile flags: /Ogtpy
_TEXT	ENDS
;	COMDAT ??_G?$basic_stringbuf@DU?$char_traits@D@std@@V?$allocator@D@2@@std@@UAEPAXI@Z
_TEXT	SEGMENT
___flags$ = 8						; size = 4
??_G?$basic_stringbuf@DU?$char_traits@D@std@@V?$allocator@D@2@@std@@UAEPAXI@Z PROC ; std::basic_stringbuf<char,std::char_traits<char>,std::allocator<char> >::`scalar deleting destructor', COMDAT
; _this$ = ecx
	push	esi
	mov	esi, ecx
	call	??1?$basic_stringbuf@DU?$char_traits@D@std@@V?$allocator@D@2@@std@@UAE@XZ ; std::basic_stringbuf<char,std::char_traits<char>,std::allocator<char> >::~basic_stringbuf<char,std::char_traits<char>,std::allocator<char> >
	test	BYTE PTR ___flags$[esp], 1
	je	SHORT $LN4@scalar@18
	push	esi
	call	??3@YAXPAX@Z				; operator delete
	add	esp, 4
$LN4@scalar@18:
	mov	eax, esi
	pop	esi
	ret	4
??_G?$basic_stringbuf@DU?$char_traits@D@std@@V?$allocator@D@2@@std@@UAEPAXI@Z ENDP ; std::basic_stringbuf<char,std::char_traits<char>,std::allocator<char> >::`scalar deleting destructor'
; Function compile flags: /Ogtpy
_TEXT	ENDS
;	COMDAT ??_G?$basic_ostringstream@DU?$char_traits@D@std@@V?$allocator@D@2@@std@@UAEPAXI@Z
_TEXT	SEGMENT
___flags$ = 8						; size = 4
??_G?$basic_ostringstream@DU?$char_traits@D@std@@V?$allocator@D@2@@std@@UAEPAXI@Z PROC ; std::basic_ostringstream<char,std::char_traits<char>,std::allocator<char> >::`scalar deleting destructor', COMDAT
; _this$ = ecx
	push	esi
	push	edi
	lea	edi, DWORD PTR [ecx-76]
	lea	esi, DWORD PTR [edi+76]
	mov	ecx, esi
	call	??1?$basic_ostringstream@DU?$char_traits@D@std@@V?$allocator@D@2@@std@@UAE@XZ ; std::basic_ostringstream<char,std::char_traits<char>,std::allocator<char> >::~basic_ostringstream<char,std::char_traits<char>,std::allocator<char> >
	push	esi
	mov	DWORD PTR [esi], OFFSET ??_7ios_base@std@@6B@
	call	?_Ios_base_dtor@ios_base@std@@CAXPAV12@@Z ; std::ios_base::_Ios_base_dtor
	add	esp, 4
	test	BYTE PTR ___flags$[esp+4], 1
	je	SHORT $LN11@scalar@19
	push	edi
	call	??3@YAXPAX@Z				; operator delete
	add	esp, 4
$LN11@scalar@19:
	mov	eax, edi
	pop	edi
	pop	esi
	ret	4
??_G?$basic_ostringstream@DU?$char_traits@D@std@@V?$allocator@D@2@@std@@UAEPAXI@Z ENDP ; std::basic_ostringstream<char,std::char_traits<char>,std::allocator<char> >::`scalar deleting destructor'
; Function compile flags: /Ogtpy
; File c:\program files\microsoft visual studio 8\vc\include\vector
_TEXT	ENDS
;	COMDAT ?clear@?$vector@V?$basic_string@DU?$char_traits@D@std@@V?$allocator@D@2@@std@@V?$allocator@V?$basic_string@DU?$char_traits@D@std@@V?$allocator@D@2@@std@@@2@@std@@QAEXXZ
_TEXT	SEGMENT
__Cat$39556 = -4					; size = 1
?clear@?$vector@V?$basic_string@DU?$char_traits@D@std@@V?$allocator@D@2@@std@@V?$allocator@V?$basic_string@DU?$char_traits@D@std@@V?$allocator@D@2@@std@@@2@@std@@QAEXXZ PROC ; std::vector<std::basic_string<char,std::char_traits<char>,std::allocator<char> >,std::allocator<std::basic_string<char,std::char_traits<char>,std::allocator<char> > > >::clear, COMDAT
; _this$ = esi

; 1034 : 		{	// erase all

	push	ecx
	push	ebx

; 1035 : 		erase(begin(), end());

	mov	ebx, DWORD PTR [esi+8]
	cmp	DWORD PTR [esi+4], ebx
	push	edi
	jbe	SHORT $LN8@clear
	call	__invalid_parameter_noinfo
$LN8@clear:
	mov	edi, DWORD PTR [esi+4]
	cmp	edi, DWORD PTR [esi+8]
	jbe	SHORT $LN20@clear
	call	__invalid_parameter_noinfo
$LN20@clear:
	cmp	edi, ebx
	je	SHORT $LN27@clear
	mov	eax, edi
	mov	edi, DWORD PTR [esi+8]
	mov	ecx, ebx
	call	??$unchecked_copy@PAV?$basic_string@DU?$char_traits@D@std@@V?$allocator@D@2@@std@@PAV12@@stdext@@YAPAV?$basic_string@DU?$char_traits@D@std@@V?$allocator@D@2@@std@@PAV12@00@Z ; stdext::unchecked_copy<std::basic_string<char,std::char_traits<char>,std::allocator<char> > *,std::basic_string<char,std::char_traits<char>,std::allocator<char> > *>
	mov	edi, DWORD PTR [esi+8]
	mov	ebx, eax
	mov	eax, DWORD PTR __Cat$39556[esp+12]
	push	eax
	mov	eax, ebx
	call	??$_Destroy_range@V?$basic_string@DU?$char_traits@D@std@@V?$allocator@D@2@@std@@V?$allocator@V?$basic_string@DU?$char_traits@D@std@@V?$allocator@D@2@@std@@@2@@std@@YAXPAV?$basic_string@DU?$char_traits@D@std@@V?$allocator@D@2@@0@0AAV?$allocator@V?$basic_string@DU?$char_traits@D@std@@V?$allocator@D@2@@std@@@0@U_Nonscalar_ptr_iterator_tag@0@@Z ; std::_Destroy_range<std::basic_string<char,std::char_traits<char>,std::allocator<char> >,std::allocator<std::basic_string<char,std::char_traits<char>,std::allocator<char> > > >
	add	esp, 4
	mov	DWORD PTR [esi+8], ebx
$LN27@clear:
	pop	edi
	pop	ebx

; 1036 : 		}

	pop	ecx
	ret	0
?clear@?$vector@V?$basic_string@DU?$char_traits@D@std@@V?$allocator@D@2@@std@@V?$allocator@V?$basic_string@DU?$char_traits@D@std@@V?$allocator@D@2@@std@@@2@@std@@QAEXXZ ENDP ; std::vector<std::basic_string<char,std::char_traits<char>,std::allocator<char> >,std::allocator<std::basic_string<char,std::char_traits<char>,std::allocator<char> > > >::clear
; Function compile flags: /Ogtpy
; File c:\program files\microsoft visual studio 8\vc\include\xstring
_TEXT	ENDS
;	COMDAT ??0?$basic_string@DU?$char_traits@D@std@@V?$allocator@D@2@@std@@QAE@ID@Z
_TEXT	SEGMENT
??0?$basic_string@DU?$char_traits@D@std@@V?$allocator@D@2@@std@@QAE@ID@Z PROC ; std::basic_string<char,std::char_traits<char>,std::allocator<char> >::basic_string<char,std::char_traits<char>,std::allocator<char> >, COMDAT
; _this$ = eax
; __Count$ = ebx

; 645  : 		{	// construct from _Count * _Ch

	push	esi
	mov	esi, eax

; 646  : 		_Tidy();

	xor	eax, eax
	mov	DWORD PTR [esi+24], 15			; 0000000fH
	mov	DWORD PTR [esi+20], eax
	mov	BYTE PTR [esi+4], al

; 647  : 		assign(_Count, _Ch);

	call	?assign@?$basic_string@DU?$char_traits@D@std@@V?$allocator@D@2@@std@@QAEAAV12@ID@Z ; std::basic_string<char,std::char_traits<char>,std::allocator<char> >::assign

; 648  : 		}

	mov	eax, esi
	pop	esi
	ret	0
??0?$basic_string@DU?$char_traits@D@std@@V?$allocator@D@2@@std@@QAE@ID@Z ENDP ; std::basic_string<char,std::char_traits<char>,std::allocator<char> >::basic_string<char,std::char_traits<char>,std::allocator<char> >
_TEXT	ENDS
PUBLIC	___$ReturnUdt$GSCopy$
PUBLIC	?normalizeEOL@StyledWriter@Json@@CA?AV?$basic_string@DU?$char_traits@D@std@@V?$allocator@D@2@@std@@ABV34@@Z ; Json::StyledWriter::normalizeEOL
;	COMDAT xdata$x
xdata$x	SEGMENT
__unwindtable$?normalizeEOL@StyledWriter@Json@@CA?AV?$basic_string@DU?$char_traits@D@std@@V?$allocator@D@2@@std@@ABV34@@Z DD 0ffffffffH
	DD	FLAT:__unwindfunclet$?normalizeEOL@StyledWriter@Json@@CA?AV?$basic_string@DU?$char_traits@D@std@@V?$allocator@D@2@@std@@ABV34@@Z$0
__ehfuncinfo$?normalizeEOL@StyledWriter@Json@@CA?AV?$basic_string@DU?$char_traits@D@std@@V?$allocator@D@2@@std@@ABV34@@Z DD 019930522H
	DD	01H
	DD	FLAT:__unwindtable$?normalizeEOL@StyledWriter@Json@@CA?AV?$basic_string@DU?$char_traits@D@std@@V?$allocator@D@2@@std@@ABV34@@Z
	DD	2 DUP(00H)
